
I2Cv1.elf:     file format elf32-avr

Sections:
Idx Name          Size      VMA       LMA       File off  Algn
  0 .text         000026d4  00000000  00000000  00000094  2**1
                  CONTENTS, ALLOC, LOAD, READONLY, CODE
  1 .data         00000f6a  00802000  000026d4  00002768  2**0
                  CONTENTS, ALLOC, LOAD, DATA
  2 .bss          00000208  00802f6a  00802f6a  000036d2  2**0
                  ALLOC
  3 .comment      0000005c  00000000  00000000  000036d2  2**0
                  CONTENTS, READONLY
  4 .note.gnu.avr.deviceinfo 00000044  00000000  00000000  00003730  2**2
                  CONTENTS, READONLY
  5 .debug_aranges 00000380  00000000  00000000  00003774  2**0
                  CONTENTS, READONLY, DEBUGGING
  6 .debug_info   0000c164  00000000  00000000  00003af4  2**0
                  CONTENTS, READONLY, DEBUGGING
  7 .debug_abbrev 00004435  00000000  00000000  0000fc58  2**0
                  CONTENTS, READONLY, DEBUGGING
  8 .debug_line   00003855  00000000  00000000  0001408d  2**0
                  CONTENTS, READONLY, DEBUGGING
  9 .debug_frame  00000a14  00000000  00000000  000178e4  2**2
                  CONTENTS, READONLY, DEBUGGING
 10 .debug_str    00004299  00000000  00000000  000182f8  2**0
                  CONTENTS, READONLY, DEBUGGING
 11 .debug_loc    00006498  00000000  00000000  0001c591  2**0
                  CONTENTS, READONLY, DEBUGGING
 12 .debug_ranges 00000500  00000000  00000000  00022a29  2**0
                  CONTENTS, READONLY, DEBUGGING

Disassembly of section .text:

00000000 <__vectors>:
       0:	0c 94 fe 00 	jmp	0x1fc	; 0x1fc <__ctors_end>
       4:	0c 94 1f 01 	jmp	0x23e	; 0x23e <__bad_interrupt>
       8:	0c 94 1f 01 	jmp	0x23e	; 0x23e <__bad_interrupt>
       c:	0c 94 1f 01 	jmp	0x23e	; 0x23e <__bad_interrupt>
      10:	0c 94 1f 01 	jmp	0x23e	; 0x23e <__bad_interrupt>
      14:	0c 94 1f 01 	jmp	0x23e	; 0x23e <__bad_interrupt>
      18:	0c 94 1f 01 	jmp	0x23e	; 0x23e <__bad_interrupt>
      1c:	0c 94 1f 01 	jmp	0x23e	; 0x23e <__bad_interrupt>
      20:	0c 94 1f 01 	jmp	0x23e	; 0x23e <__bad_interrupt>
      24:	0c 94 1f 01 	jmp	0x23e	; 0x23e <__bad_interrupt>
      28:	0c 94 1f 01 	jmp	0x23e	; 0x23e <__bad_interrupt>
      2c:	0c 94 1f 01 	jmp	0x23e	; 0x23e <__bad_interrupt>
      30:	0c 94 1f 01 	jmp	0x23e	; 0x23e <__bad_interrupt>
      34:	0c 94 1f 01 	jmp	0x23e	; 0x23e <__bad_interrupt>
      38:	0c 94 1f 01 	jmp	0x23e	; 0x23e <__bad_interrupt>
      3c:	0c 94 1f 01 	jmp	0x23e	; 0x23e <__bad_interrupt>
      40:	0c 94 1f 01 	jmp	0x23e	; 0x23e <__bad_interrupt>
      44:	0c 94 1f 01 	jmp	0x23e	; 0x23e <__bad_interrupt>
      48:	0c 94 1f 01 	jmp	0x23e	; 0x23e <__bad_interrupt>
      4c:	0c 94 1f 01 	jmp	0x23e	; 0x23e <__bad_interrupt>
      50:	0c 94 1f 01 	jmp	0x23e	; 0x23e <__bad_interrupt>
      54:	0c 94 1f 01 	jmp	0x23e	; 0x23e <__bad_interrupt>
      58:	0c 94 1f 01 	jmp	0x23e	; 0x23e <__bad_interrupt>
      5c:	0c 94 1f 01 	jmp	0x23e	; 0x23e <__bad_interrupt>
      60:	0c 94 1f 01 	jmp	0x23e	; 0x23e <__bad_interrupt>
      64:	0c 94 1f 01 	jmp	0x23e	; 0x23e <__bad_interrupt>
      68:	0c 94 1f 01 	jmp	0x23e	; 0x23e <__bad_interrupt>
      6c:	0c 94 1f 01 	jmp	0x23e	; 0x23e <__bad_interrupt>
      70:	0c 94 1f 01 	jmp	0x23e	; 0x23e <__bad_interrupt>
      74:	0c 94 1f 01 	jmp	0x23e	; 0x23e <__bad_interrupt>
      78:	0c 94 1f 01 	jmp	0x23e	; 0x23e <__bad_interrupt>
      7c:	0c 94 1f 01 	jmp	0x23e	; 0x23e <__bad_interrupt>
      80:	0c 94 1f 01 	jmp	0x23e	; 0x23e <__bad_interrupt>
      84:	0c 94 1f 01 	jmp	0x23e	; 0x23e <__bad_interrupt>
      88:	0c 94 1f 01 	jmp	0x23e	; 0x23e <__bad_interrupt>
      8c:	0c 94 1f 01 	jmp	0x23e	; 0x23e <__bad_interrupt>
      90:	0c 94 1f 01 	jmp	0x23e	; 0x23e <__bad_interrupt>
      94:	0c 94 1f 01 	jmp	0x23e	; 0x23e <__bad_interrupt>
      98:	0c 94 1f 01 	jmp	0x23e	; 0x23e <__bad_interrupt>
      9c:	0c 94 1f 01 	jmp	0x23e	; 0x23e <__bad_interrupt>
      a0:	0c 94 1f 01 	jmp	0x23e	; 0x23e <__bad_interrupt>
      a4:	0c 94 1f 01 	jmp	0x23e	; 0x23e <__bad_interrupt>
      a8:	0c 94 1f 01 	jmp	0x23e	; 0x23e <__bad_interrupt>
      ac:	0c 94 1f 01 	jmp	0x23e	; 0x23e <__bad_interrupt>
      b0:	0c 94 1f 01 	jmp	0x23e	; 0x23e <__bad_interrupt>
      b4:	0c 94 1f 01 	jmp	0x23e	; 0x23e <__bad_interrupt>
      b8:	0c 94 1f 01 	jmp	0x23e	; 0x23e <__bad_interrupt>
      bc:	0c 94 1f 01 	jmp	0x23e	; 0x23e <__bad_interrupt>
      c0:	0c 94 1f 01 	jmp	0x23e	; 0x23e <__bad_interrupt>
      c4:	0c 94 1f 01 	jmp	0x23e	; 0x23e <__bad_interrupt>
      c8:	0c 94 1f 01 	jmp	0x23e	; 0x23e <__bad_interrupt>
      cc:	0c 94 1f 01 	jmp	0x23e	; 0x23e <__bad_interrupt>
      d0:	0c 94 1f 01 	jmp	0x23e	; 0x23e <__bad_interrupt>
      d4:	0c 94 1f 01 	jmp	0x23e	; 0x23e <__bad_interrupt>
      d8:	0c 94 1f 01 	jmp	0x23e	; 0x23e <__bad_interrupt>
      dc:	0c 94 1f 01 	jmp	0x23e	; 0x23e <__bad_interrupt>
      e0:	0c 94 1f 01 	jmp	0x23e	; 0x23e <__bad_interrupt>
      e4:	0c 94 1f 01 	jmp	0x23e	; 0x23e <__bad_interrupt>
      e8:	0c 94 1f 01 	jmp	0x23e	; 0x23e <__bad_interrupt>
      ec:	0c 94 1f 01 	jmp	0x23e	; 0x23e <__bad_interrupt>
      f0:	0c 94 1f 01 	jmp	0x23e	; 0x23e <__bad_interrupt>
      f4:	0c 94 1f 01 	jmp	0x23e	; 0x23e <__bad_interrupt>
      f8:	0c 94 1f 01 	jmp	0x23e	; 0x23e <__bad_interrupt>
      fc:	0c 94 1f 01 	jmp	0x23e	; 0x23e <__bad_interrupt>
     100:	0c 94 1f 01 	jmp	0x23e	; 0x23e <__bad_interrupt>
     104:	0c 94 1f 01 	jmp	0x23e	; 0x23e <__bad_interrupt>
     108:	0c 94 1f 01 	jmp	0x23e	; 0x23e <__bad_interrupt>
     10c:	0c 94 1f 01 	jmp	0x23e	; 0x23e <__bad_interrupt>
     110:	0c 94 1f 01 	jmp	0x23e	; 0x23e <__bad_interrupt>
     114:	0c 94 1f 01 	jmp	0x23e	; 0x23e <__bad_interrupt>
     118:	0c 94 1f 01 	jmp	0x23e	; 0x23e <__bad_interrupt>
     11c:	0c 94 1f 01 	jmp	0x23e	; 0x23e <__bad_interrupt>
     120:	0c 94 1f 01 	jmp	0x23e	; 0x23e <__bad_interrupt>
     124:	0c 94 1f 01 	jmp	0x23e	; 0x23e <__bad_interrupt>
     128:	0c 94 1f 01 	jmp	0x23e	; 0x23e <__bad_interrupt>
     12c:	0c 94 1f 01 	jmp	0x23e	; 0x23e <__bad_interrupt>
     130:	0c 94 1f 01 	jmp	0x23e	; 0x23e <__bad_interrupt>
     134:	0c 94 1f 01 	jmp	0x23e	; 0x23e <__bad_interrupt>
     138:	0c 94 1f 01 	jmp	0x23e	; 0x23e <__bad_interrupt>
     13c:	0c 94 1f 01 	jmp	0x23e	; 0x23e <__bad_interrupt>
     140:	0c 94 1f 01 	jmp	0x23e	; 0x23e <__bad_interrupt>
     144:	0c 94 1f 01 	jmp	0x23e	; 0x23e <__bad_interrupt>
     148:	0c 94 1f 01 	jmp	0x23e	; 0x23e <__bad_interrupt>
     14c:	0c 94 1f 01 	jmp	0x23e	; 0x23e <__bad_interrupt>
     150:	0c 94 1f 01 	jmp	0x23e	; 0x23e <__bad_interrupt>
     154:	0c 94 1f 01 	jmp	0x23e	; 0x23e <__bad_interrupt>
     158:	0c 94 1f 01 	jmp	0x23e	; 0x23e <__bad_interrupt>
     15c:	0c 94 1f 01 	jmp	0x23e	; 0x23e <__bad_interrupt>
     160:	0c 94 1f 01 	jmp	0x23e	; 0x23e <__bad_interrupt>
     164:	0c 94 1f 01 	jmp	0x23e	; 0x23e <__bad_interrupt>
     168:	0c 94 1f 01 	jmp	0x23e	; 0x23e <__bad_interrupt>
     16c:	0c 94 1f 01 	jmp	0x23e	; 0x23e <__bad_interrupt>
     170:	0c 94 1f 01 	jmp	0x23e	; 0x23e <__bad_interrupt>
     174:	0c 94 1f 01 	jmp	0x23e	; 0x23e <__bad_interrupt>
     178:	0c 94 1f 01 	jmp	0x23e	; 0x23e <__bad_interrupt>
     17c:	0c 94 1f 01 	jmp	0x23e	; 0x23e <__bad_interrupt>
     180:	0c 94 1f 01 	jmp	0x23e	; 0x23e <__bad_interrupt>
     184:	0c 94 1f 01 	jmp	0x23e	; 0x23e <__bad_interrupt>
     188:	0c 94 1f 01 	jmp	0x23e	; 0x23e <__bad_interrupt>
     18c:	0c 94 1f 01 	jmp	0x23e	; 0x23e <__bad_interrupt>
     190:	0c 94 1f 01 	jmp	0x23e	; 0x23e <__bad_interrupt>
     194:	0c 94 1f 01 	jmp	0x23e	; 0x23e <__bad_interrupt>
     198:	0c 94 1f 01 	jmp	0x23e	; 0x23e <__bad_interrupt>
     19c:	0c 94 1f 01 	jmp	0x23e	; 0x23e <__bad_interrupt>
     1a0:	0c 94 1f 01 	jmp	0x23e	; 0x23e <__bad_interrupt>
     1a4:	0c 94 1f 01 	jmp	0x23e	; 0x23e <__bad_interrupt>
     1a8:	0c 94 1f 01 	jmp	0x23e	; 0x23e <__bad_interrupt>
     1ac:	0c 94 1f 01 	jmp	0x23e	; 0x23e <__bad_interrupt>
     1b0:	0c 94 95 0d 	jmp	0x1b2a	; 0x1b2a <__vector_108>
     1b4:	0c 94 1f 01 	jmp	0x23e	; 0x23e <__bad_interrupt>
     1b8:	0c 94 1f 01 	jmp	0x23e	; 0x23e <__bad_interrupt>
     1bc:	0c 94 1f 01 	jmp	0x23e	; 0x23e <__bad_interrupt>
     1c0:	0c 94 1f 01 	jmp	0x23e	; 0x23e <__bad_interrupt>
     1c4:	0c 94 1f 01 	jmp	0x23e	; 0x23e <__bad_interrupt>
     1c8:	0c 94 1f 01 	jmp	0x23e	; 0x23e <__bad_interrupt>
     1cc:	0c 94 1f 01 	jmp	0x23e	; 0x23e <__bad_interrupt>
     1d0:	0c 94 1f 01 	jmp	0x23e	; 0x23e <__bad_interrupt>
     1d4:	0c 94 1f 01 	jmp	0x23e	; 0x23e <__bad_interrupt>
     1d8:	0c 94 1f 01 	jmp	0x23e	; 0x23e <__bad_interrupt>
     1dc:	0c 94 1f 01 	jmp	0x23e	; 0x23e <__bad_interrupt>
     1e0:	0c 94 1f 01 	jmp	0x23e	; 0x23e <__bad_interrupt>
     1e4:	0c 94 1f 01 	jmp	0x23e	; 0x23e <__bad_interrupt>
     1e8:	0c 94 1f 01 	jmp	0x23e	; 0x23e <__bad_interrupt>
     1ec:	0c 94 1f 01 	jmp	0x23e	; 0x23e <__bad_interrupt>
     1f0:	0c 94 1f 01 	jmp	0x23e	; 0x23e <__bad_interrupt>
     1f4:	0c 94 1f 01 	jmp	0x23e	; 0x23e <__bad_interrupt>
     1f8:	0c 94 1f 01 	jmp	0x23e	; 0x23e <__bad_interrupt>

000001fc <__ctors_end>:
     1fc:	11 24       	eor	r1, r1
     1fe:	1f be       	out	0x3f, r1	; 63
     200:	cf ef       	ldi	r28, 0xFF	; 255
     202:	cd bf       	out	0x3d, r28	; 61
     204:	df e5       	ldi	r29, 0x5F	; 95
     206:	de bf       	out	0x3e, r29	; 62
     208:	00 e0       	ldi	r16, 0x00	; 0
     20a:	0c bf       	out	0x3c, r16	; 60

0000020c <__do_copy_data>:
     20c:	1f e2       	ldi	r17, 0x2F	; 47
     20e:	a0 e0       	ldi	r26, 0x00	; 0
     210:	b0 e2       	ldi	r27, 0x20	; 32
     212:	e4 ed       	ldi	r30, 0xD4	; 212
     214:	f6 e2       	ldi	r31, 0x26	; 38
     216:	00 e0       	ldi	r16, 0x00	; 0
     218:	0b bf       	out	0x3b, r16	; 59
     21a:	02 c0       	rjmp	.+4      	; 0x220 <__do_copy_data+0x14>
     21c:	07 90       	elpm	r0, Z+
     21e:	0d 92       	st	X+, r0
     220:	aa 36       	cpi	r26, 0x6A	; 106
     222:	b1 07       	cpc	r27, r17
     224:	d9 f7       	brne	.-10     	; 0x21c <__do_copy_data+0x10>

00000226 <__do_clear_bss>:
     226:	21 e3       	ldi	r18, 0x31	; 49
     228:	aa e6       	ldi	r26, 0x6A	; 106
     22a:	bf e2       	ldi	r27, 0x2F	; 47
     22c:	01 c0       	rjmp	.+2      	; 0x230 <.do_clear_bss_start>

0000022e <.do_clear_bss_loop>:
     22e:	1d 92       	st	X+, r1

00000230 <.do_clear_bss_start>:
     230:	a2 37       	cpi	r26, 0x72	; 114
     232:	b2 07       	cpc	r27, r18
     234:	e1 f7       	brne	.-8      	; 0x22e <.do_clear_bss_loop>
     236:	0e 94 6f 07 	call	0xede	; 0xede <main>
     23a:	0c 94 68 13 	jmp	0x26d0	; 0x26d0 <_exit>

0000023e <__bad_interrupt>:
     23e:	0c 94 00 00 	jmp	0	; 0x0 <__vectors>

00000242 <STLED316_DisplayOn>:
     242:	cf 93       	push	r28
     244:	df 93       	push	r29
     246:	1f 92       	push	r1
     248:	cd b7       	in	r28, 0x3d	; 61
     24a:	de b7       	in	r29, 0x3e	; 62
     24c:	8d e0       	ldi	r24, 0x0D	; 13
     24e:	89 83       	std	Y+1, r24	; 0x01
     250:	61 e0       	ldi	r22, 0x01	; 1
     252:	ce 01       	movw	r24, r28
     254:	01 96       	adiw	r24, 0x01	; 1
     256:	0e 94 0b 02 	call	0x416	; 0x416 <STLED316_Write>
     25a:	0f 90       	pop	r0
     25c:	df 91       	pop	r29
     25e:	cf 91       	pop	r28
     260:	08 95       	ret

00000262 <STLED316_SetBrghtCtrlModeAndDigitCnt>:
     262:	cf 93       	push	r28
     264:	df 93       	push	r29
     266:	1f 92       	push	r1
     268:	1f 92       	push	r1
     26a:	cd b7       	in	r28, 0x3d	; 61
     26c:	de b7       	in	r29, 0x3e	; 62
     26e:	90 e1       	ldi	r25, 0x10	; 16
     270:	99 83       	std	Y+1, r25	; 0x01
     272:	41 50       	subi	r20, 0x01	; 1
     274:	46 30       	cpi	r20, 0x06	; 6
     276:	10 f4       	brcc	.+4      	; 0x27c <STLED316_SetBrghtCtrlModeAndDigitCnt+0x1a>
     278:	94 2f       	mov	r25, r20
     27a:	01 c0       	rjmp	.+2      	; 0x27e <STLED316_SetBrghtCtrlModeAndDigitCnt+0x1c>
     27c:	95 e0       	ldi	r25, 0x05	; 5
     27e:	20 e2       	ldi	r18, 0x20	; 32
     280:	62 9f       	mul	r22, r18
     282:	a0 01       	movw	r20, r0
     284:	11 24       	eor	r1, r1
     286:	48 2b       	or	r20, r24
     288:	49 2b       	or	r20, r25
     28a:	4a 83       	std	Y+2, r20	; 0x02
     28c:	62 e0       	ldi	r22, 0x02	; 2
     28e:	ce 01       	movw	r24, r28
     290:	01 96       	adiw	r24, 0x01	; 1
     292:	0e 94 0b 02 	call	0x416	; 0x416 <STLED316_Write>
     296:	0f 90       	pop	r0
     298:	0f 90       	pop	r0
     29a:	df 91       	pop	r29
     29c:	cf 91       	pop	r28
     29e:	08 95       	ret

000002a0 <STLED316_7Seg_Write>:
     2a0:	cf 93       	push	r28
     2a2:	df 93       	push	r29
     2a4:	1f 92       	push	r1
     2a6:	1f 92       	push	r1
     2a8:	cd b7       	in	r28, 0x3d	; 61
     2aa:	de b7       	in	r29, 0x3e	; 62
     2ac:	89 83       	std	Y+1, r24	; 0x01
     2ae:	6a 83       	std	Y+2, r22	; 0x02
     2b0:	62 e0       	ldi	r22, 0x02	; 2
     2b2:	ce 01       	movw	r24, r28
     2b4:	01 96       	adiw	r24, 0x01	; 1
     2b6:	0e 94 0b 02 	call	0x416	; 0x416 <STLED316_Write>
     2ba:	0f 90       	pop	r0
     2bc:	0f 90       	pop	r0
     2be:	df 91       	pop	r29
     2c0:	cf 91       	pop	r28
     2c2:	08 95       	ret

000002c4 <STLED316_7Seg_WriteTxt>:
     2c4:	0f 93       	push	r16
     2c6:	1f 93       	push	r17
     2c8:	cf 93       	push	r28
     2ca:	c8 2f       	mov	r28, r24
     2cc:	db 01       	movw	r26, r22
     2ce:	8c 91       	ld	r24, X
     2d0:	88 23       	and	r24, r24
     2d2:	d1 f1       	breq	.+116    	; 0x348 <STLED316_7Seg_WriteTxt+0x84>
     2d4:	c6 30       	cpi	r28, 0x06	; 6
     2d6:	c0 f5       	brcc	.+112    	; 0x348 <STLED316_7Seg_WriteTxt+0x84>
     2d8:	e0 ed       	ldi	r30, 0xD0	; 208
     2da:	e8 0f       	add	r30, r24
     2dc:	ea 30       	cpi	r30, 0x0A	; 10
     2de:	b8 f0       	brcs	.+46     	; 0x30e <STLED316_7Seg_WriteTxt+0x4a>
     2e0:	9f eb       	ldi	r25, 0xBF	; 191
     2e2:	98 0f       	add	r25, r24
     2e4:	96 30       	cpi	r25, 0x06	; 6
     2e6:	18 f4       	brcc	.+6      	; 0x2ee <STLED316_7Seg_WriteTxt+0x2a>
     2e8:	e9 ec       	ldi	r30, 0xC9	; 201
     2ea:	e8 0f       	add	r30, r24
     2ec:	10 c0       	rjmp	.+32     	; 0x30e <STLED316_7Seg_WriteTxt+0x4a>
     2ee:	9f e9       	ldi	r25, 0x9F	; 159
     2f0:	98 0f       	add	r25, r24
     2f2:	96 30       	cpi	r25, 0x06	; 6
     2f4:	18 f4       	brcc	.+6      	; 0x2fc <STLED316_7Seg_WriteTxt+0x38>
     2f6:	e9 ea       	ldi	r30, 0xA9	; 169
     2f8:	e8 0f       	add	r30, r24
     2fa:	09 c0       	rjmp	.+18     	; 0x30e <STLED316_7Seg_WriteTxt+0x4a>
     2fc:	8d 32       	cpi	r24, 0x2D	; 45
     2fe:	21 f0       	breq	.+8      	; 0x308 <STLED316_7Seg_WriteTxt+0x44>
     300:	80 32       	cpi	r24, 0x20	; 32
     302:	21 f0       	breq	.+8      	; 0x30c <STLED316_7Seg_WriteTxt+0x48>
     304:	e2 e1       	ldi	r30, 0x12	; 18
     306:	03 c0       	rjmp	.+6      	; 0x30e <STLED316_7Seg_WriteTxt+0x4a>
     308:	e0 e1       	ldi	r30, 0x10	; 16
     30a:	01 c0       	rjmp	.+2      	; 0x30e <STLED316_7Seg_WriteTxt+0x4a>
     30c:	e1 e1       	ldi	r30, 0x11	; 17
     30e:	0e 2e       	mov	r0, r30
     310:	00 0c       	add	r0, r0
     312:	ff 0b       	sbc	r31, r31
     314:	e0 50       	subi	r30, 0x00	; 0
     316:	f0 4e       	sbci	r31, 0xE0	; 224
     318:	60 81       	ld	r22, Z
     31a:	11 96       	adiw	r26, 0x01	; 1
     31c:	8c 91       	ld	r24, X
     31e:	11 97       	sbiw	r26, 0x01	; 1
     320:	8e 32       	cpi	r24, 0x2E	; 46
     322:	29 f4       	brne	.+10     	; 0x32e <STLED316_7Seg_WriteTxt+0x6a>
     324:	60 68       	ori	r22, 0x80	; 128
     326:	8d 01       	movw	r16, r26
     328:	0f 5f       	subi	r16, 0xFF	; 255
     32a:	1f 4f       	sbci	r17, 0xFF	; 255
     32c:	01 c0       	rjmp	.+2      	; 0x330 <STLED316_7Seg_WriteTxt+0x6c>
     32e:	8d 01       	movw	r16, r26
     330:	8c 2f       	mov	r24, r28
     332:	0e 94 50 01 	call	0x2a0	; 0x2a0 <STLED316_7Seg_Write>
     336:	c1 50       	subi	r28, 0x01	; 1
     338:	d8 01       	movw	r26, r16
     33a:	11 96       	adiw	r26, 0x01	; 1
     33c:	f8 01       	movw	r30, r16
     33e:	81 81       	ldd	r24, Z+1	; 0x01
     340:	88 23       	and	r24, r24
     342:	11 f0       	breq	.+4      	; 0x348 <STLED316_7Seg_WriteTxt+0x84>
     344:	c6 30       	cpi	r28, 0x06	; 6
     346:	40 f2       	brcs	.-112    	; 0x2d8 <STLED316_7Seg_WriteTxt+0x14>
     348:	cf 91       	pop	r28
     34a:	1f 91       	pop	r17
     34c:	0f 91       	pop	r16
     34e:	08 95       	ret

00000350 <STLED316_Buts_Read>:
     350:	cf 93       	push	r28
     352:	df 93       	push	r29
     354:	1f 92       	push	r1
     356:	1f 92       	push	r1
     358:	cd b7       	in	r28, 0x3d	; 61
     35a:	de b7       	in	r29, 0x3e	; 62
     35c:	42 e0       	ldi	r20, 0x02	; 2
     35e:	be 01       	movw	r22, r28
     360:	6f 5f       	subi	r22, 0xFF	; 255
     362:	7f 4f       	sbci	r23, 0xFF	; 255
     364:	89 e4       	ldi	r24, 0x49	; 73
     366:	0e 94 43 02 	call	0x486	; 0x486 <STLED316_Read>
     36a:	89 81       	ldd	r24, Y+1	; 0x01
     36c:	9a 81       	ldd	r25, Y+2	; 0x02
     36e:	0f 90       	pop	r0
     370:	0f 90       	pop	r0
     372:	df 91       	pop	r29
     374:	cf 91       	pop	r28
     376:	08 95       	ret

00000378 <STLED316_LEDs_SetBrght>:
     378:	cf 93       	push	r28
     37a:	df 93       	push	r29
     37c:	cd b7       	in	r28, 0x3d	; 61
     37e:	de b7       	in	r29, 0x3e	; 62
     380:	25 97       	sbiw	r28, 0x05	; 5
     382:	cd bf       	out	0x3d, r28	; 61
     384:	de bf       	out	0x3e, r29	; 62
     386:	98 e1       	ldi	r25, 0x18	; 24
     388:	99 83       	std	Y+1, r25	; 0x01
     38a:	87 70       	andi	r24, 0x07	; 7
     38c:	90 e1       	ldi	r25, 0x10	; 16
     38e:	89 9f       	mul	r24, r25
     390:	90 01       	movw	r18, r0
     392:	11 24       	eor	r1, r1
     394:	28 2b       	or	r18, r24
     396:	2a 83       	std	Y+2, r18	; 0x02
     398:	2b 83       	std	Y+3, r18	; 0x03
     39a:	2c 83       	std	Y+4, r18	; 0x04
     39c:	2d 83       	std	Y+5, r18	; 0x05
     39e:	65 e0       	ldi	r22, 0x05	; 5
     3a0:	ce 01       	movw	r24, r28
     3a2:	01 96       	adiw	r24, 0x01	; 1
     3a4:	0e 94 0b 02 	call	0x416	; 0x416 <STLED316_Write>
     3a8:	25 96       	adiw	r28, 0x05	; 5
     3aa:	cd bf       	out	0x3d, r28	; 61
     3ac:	de bf       	out	0x3e, r29	; 62
     3ae:	df 91       	pop	r29
     3b0:	cf 91       	pop	r28
     3b2:	08 95       	ret

000003b4 <STLED316_7Seg_SetBrght>:
     3b4:	cf 93       	push	r28
     3b6:	df 93       	push	r29
     3b8:	00 d0       	rcall	.+0      	; 0x3ba <STLED316_7Seg_SetBrght+0x6>
     3ba:	1f 92       	push	r1
     3bc:	cd b7       	in	r28, 0x3d	; 61
     3be:	de b7       	in	r29, 0x3e	; 62
     3c0:	91 e1       	ldi	r25, 0x11	; 17
     3c2:	99 83       	std	Y+1, r25	; 0x01
     3c4:	87 70       	andi	r24, 0x07	; 7
     3c6:	90 e1       	ldi	r25, 0x10	; 16
     3c8:	89 9f       	mul	r24, r25
     3ca:	90 01       	movw	r18, r0
     3cc:	11 24       	eor	r1, r1
     3ce:	28 2b       	or	r18, r24
     3d0:	2a 83       	std	Y+2, r18	; 0x02
     3d2:	2b 83       	std	Y+3, r18	; 0x03
     3d4:	2c 83       	std	Y+4, r18	; 0x04
     3d6:	64 e0       	ldi	r22, 0x04	; 4
     3d8:	ce 01       	movw	r24, r28
     3da:	01 96       	adiw	r24, 0x01	; 1
     3dc:	0e 94 0b 02 	call	0x416	; 0x416 <STLED316_Write>
     3e0:	24 96       	adiw	r28, 0x04	; 4
     3e2:	cd bf       	out	0x3d, r28	; 61
     3e4:	de bf       	out	0x3e, r29	; 62
     3e6:	df 91       	pop	r29
     3e8:	cf 91       	pop	r28
     3ea:	08 95       	ret

000003ec <STLED316_Initialize>:
     3ec:	a0 eb       	ldi	r26, 0xB0	; 176
     3ee:	b0 e0       	ldi	r27, 0x00	; 0
     3f0:	21 e0       	ldi	r18, 0x01	; 1
     3f2:	2c 93       	st	X, r18
     3f4:	e0 e8       	ldi	r30, 0x80	; 128
     3f6:	f6 e0       	ldi	r31, 0x06	; 6
     3f8:	88 e1       	ldi	r24, 0x18	; 24
     3fa:	80 8b       	std	Z+16, r24	; 0x10
     3fc:	21 83       	std	Z+1, r18	; 0x01
     3fe:	92 e0       	ldi	r25, 0x02	; 2
     400:	9c 93       	st	X, r25
     402:	10 8a       	std	Z+16, r1	; 0x10
     404:	91 83       	std	Z+1, r25	; 0x01
     406:	84 e0       	ldi	r24, 0x04	; 4
     408:	8c 93       	st	X, r24
     40a:	10 8a       	std	Z+16, r1	; 0x10
     40c:	81 83       	std	Z+1, r24	; 0x01
     40e:	25 83       	std	Z+5, r18	; 0x05
     410:	95 83       	std	Z+5, r25	; 0x05
     412:	85 83       	std	Z+5, r24	; 0x05
     414:	08 95       	ret

00000416 <STLED316_Write>:
     416:	e0 e8       	ldi	r30, 0x80	; 128
     418:	f6 e0       	ldi	r31, 0x06	; 6
     41a:	21 e0       	ldi	r18, 0x01	; 1
     41c:	21 83       	std	Z+1, r18	; 0x01
     41e:	24 e0       	ldi	r18, 0x04	; 4
     420:	26 83       	std	Z+6, r18	; 0x06
	#else
		//round up by default
		__ticks_dc = (uint32_t)(ceil(fabs(__tmp)));
	#endif

	__builtin_avr_delay_cycles(__ticks_dc);
     422:	25 e0       	ldi	r18, 0x05	; 5
     424:	2a 95       	dec	r18
     426:	f1 f7       	brne	.-4      	; 0x424 <STLED316_Write+0xe>
     428:	00 00       	nop
     42a:	66 23       	and	r22, r22
     42c:	21 f1       	breq	.+72     	; 0x476 <STLED316_Write+0x60>
     42e:	dc 01       	movw	r26, r24
     430:	61 50       	subi	r22, 0x01	; 1
     432:	70 e0       	ldi	r23, 0x00	; 0
     434:	6f 5f       	subi	r22, 0xFF	; 255
     436:	7f 4f       	sbci	r23, 0xFF	; 255
     438:	68 0f       	add	r22, r24
     43a:	79 1f       	adc	r23, r25
     43c:	42 e0       	ldi	r20, 0x02	; 2
     43e:	51 e0       	ldi	r21, 0x01	; 1
     440:	17 c0       	rjmp	.+46     	; 0x470 <STLED316_Write+0x5a>
     442:	46 83       	std	Z+6, r20	; 0x06
     444:	9c 91       	ld	r25, X
     446:	93 23       	and	r25, r19
     448:	11 f0       	breq	.+4      	; 0x44e <STLED316_Write+0x38>
     44a:	55 83       	std	Z+5, r21	; 0x05
     44c:	01 c0       	rjmp	.+2      	; 0x450 <STLED316_Write+0x3a>
     44e:	56 83       	std	Z+6, r21	; 0x06
     450:	82 e0       	ldi	r24, 0x02	; 2
     452:	8a 95       	dec	r24
     454:	f1 f7       	brne	.-4      	; 0x452 <STLED316_Write+0x3c>
     456:	00 c0       	rjmp	.+0      	; 0x458 <STLED316_Write+0x42>
     458:	45 83       	std	Z+5, r20	; 0x05
     45a:	82 e0       	ldi	r24, 0x02	; 2
     45c:	8a 95       	dec	r24
     45e:	f1 f7       	brne	.-4      	; 0x45c <STLED316_Write+0x46>
     460:	00 c0       	rjmp	.+0      	; 0x462 <STLED316_Write+0x4c>
     462:	33 0f       	add	r19, r19
     464:	21 50       	subi	r18, 0x01	; 1
     466:	69 f7       	brne	.-38     	; 0x442 <STLED316_Write+0x2c>
     468:	11 96       	adiw	r26, 0x01	; 1
     46a:	6a 17       	cp	r22, r26
     46c:	7b 07       	cpc	r23, r27
     46e:	19 f0       	breq	.+6      	; 0x476 <STLED316_Write+0x60>
     470:	28 e0       	ldi	r18, 0x08	; 8
     472:	31 e0       	ldi	r19, 0x01	; 1
     474:	e6 cf       	rjmp	.-52     	; 0x442 <STLED316_Write+0x2c>
     476:	25 e0       	ldi	r18, 0x05	; 5
     478:	2a 95       	dec	r18
     47a:	f1 f7       	brne	.-4      	; 0x478 <STLED316_Write+0x62>
     47c:	00 00       	nop
     47e:	84 e0       	ldi	r24, 0x04	; 4
     480:	80 93 85 06 	sts	0x0685, r24	; 0x800685 <__TEXT_REGION_LENGTH__+0x700685>
     484:	08 95       	ret

00000486 <STLED316_Read>:
     486:	cf 93       	push	r28
     488:	df 93       	push	r29
     48a:	db 01       	movw	r26, r22
     48c:	e0 e8       	ldi	r30, 0x80	; 128
     48e:	f6 e0       	ldi	r31, 0x06	; 6
     490:	91 e0       	ldi	r25, 0x01	; 1
     492:	91 83       	std	Z+1, r25	; 0x01
     494:	94 e0       	ldi	r25, 0x04	; 4
     496:	96 83       	std	Z+6, r25	; 0x06
     498:	35 e0       	ldi	r19, 0x05	; 5
     49a:	3a 95       	dec	r19
     49c:	f1 f7       	brne	.-4      	; 0x49a <STLED316_Read+0x14>
     49e:	00 00       	nop
     4a0:	28 e0       	ldi	r18, 0x08	; 8
     4a2:	91 e0       	ldi	r25, 0x01	; 1
     4a4:	32 e0       	ldi	r19, 0x02	; 2
     4a6:	71 e0       	ldi	r23, 0x01	; 1
     4a8:	36 83       	std	Z+6, r19	; 0x06
     4aa:	58 2f       	mov	r21, r24
     4ac:	59 23       	and	r21, r25
     4ae:	11 f0       	breq	.+4      	; 0x4b4 <STLED316_Read+0x2e>
     4b0:	75 83       	std	Z+5, r23	; 0x05
     4b2:	01 c0       	rjmp	.+2      	; 0x4b6 <STLED316_Read+0x30>
     4b4:	76 83       	std	Z+6, r23	; 0x06
     4b6:	52 e0       	ldi	r21, 0x02	; 2
     4b8:	5a 95       	dec	r21
     4ba:	f1 f7       	brne	.-4      	; 0x4b8 <STLED316_Read+0x32>
     4bc:	00 c0       	rjmp	.+0      	; 0x4be <STLED316_Read+0x38>
     4be:	35 83       	std	Z+5, r19	; 0x05
     4c0:	52 e0       	ldi	r21, 0x02	; 2
     4c2:	5a 95       	dec	r21
     4c4:	f1 f7       	brne	.-4      	; 0x4c2 <STLED316_Read+0x3c>
     4c6:	00 c0       	rjmp	.+0      	; 0x4c8 <STLED316_Read+0x42>
     4c8:	99 0f       	add	r25, r25
     4ca:	21 50       	subi	r18, 0x01	; 1
     4cc:	69 f7       	brne	.-38     	; 0x4a8 <STLED316_Read+0x22>
     4ce:	85 e0       	ldi	r24, 0x05	; 5
     4d0:	8a 95       	dec	r24
     4d2:	f1 f7       	brne	.-4      	; 0x4d0 <STLED316_Read+0x4a>
     4d4:	00 00       	nop
     4d6:	81 e0       	ldi	r24, 0x01	; 1
     4d8:	80 93 82 06 	sts	0x0682, r24	; 0x800682 <__TEXT_REGION_LENGTH__+0x700682>
     4dc:	44 23       	and	r20, r20
     4de:	31 f1       	breq	.+76     	; 0x52c <STLED316_Read+0xa6>
     4e0:	ed 01       	movw	r28, r26
     4e2:	41 50       	subi	r20, 0x01	; 1
     4e4:	84 2f       	mov	r24, r20
     4e6:	90 e0       	ldi	r25, 0x00	; 0
     4e8:	01 96       	adiw	r24, 0x01	; 1
     4ea:	bd 01       	movw	r22, r26
     4ec:	68 0f       	add	r22, r24
     4ee:	79 1f       	adc	r23, r25
     4f0:	e0 e8       	ldi	r30, 0x80	; 128
     4f2:	f6 e0       	ldi	r31, 0x06	; 6
     4f4:	22 e0       	ldi	r18, 0x02	; 2
     4f6:	de 01       	movw	r26, r28
     4f8:	18 82       	st	Y, r1
     4fa:	88 e0       	ldi	r24, 0x08	; 8
     4fc:	91 e0       	ldi	r25, 0x01	; 1
     4fe:	26 83       	std	Z+6, r18	; 0x06
     500:	32 e0       	ldi	r19, 0x02	; 2
     502:	3a 95       	dec	r19
     504:	f1 f7       	brne	.-4      	; 0x502 <STLED316_Read+0x7c>
     506:	00 c0       	rjmp	.+0      	; 0x508 <STLED316_Read+0x82>
     508:	25 83       	std	Z+5, r18	; 0x05
     50a:	52 e0       	ldi	r21, 0x02	; 2
     50c:	5a 95       	dec	r21
     50e:	f1 f7       	brne	.-4      	; 0x50c <STLED316_Read+0x86>
     510:	00 c0       	rjmp	.+0      	; 0x512 <STLED316_Read+0x8c>
     512:	30 85       	ldd	r19, Z+8	; 0x08
     514:	30 ff       	sbrs	r19, 0
     516:	03 c0       	rjmp	.+6      	; 0x51e <STLED316_Read+0x98>
     518:	3c 91       	ld	r19, X
     51a:	39 2b       	or	r19, r25
     51c:	3c 93       	st	X, r19
     51e:	99 0f       	add	r25, r25
     520:	81 50       	subi	r24, 0x01	; 1
     522:	69 f7       	brne	.-38     	; 0x4fe <STLED316_Read+0x78>
     524:	21 96       	adiw	r28, 0x01	; 1
     526:	c6 17       	cp	r28, r22
     528:	d7 07       	cpc	r29, r23
     52a:	29 f7       	brne	.-54     	; 0x4f6 <STLED316_Read+0x70>
     52c:	84 e0       	ldi	r24, 0x04	; 4
     52e:	80 93 85 06 	sts	0x0685, r24	; 0x800685 <__TEXT_REGION_LENGTH__+0x700685>
     532:	df 91       	pop	r29
     534:	cf 91       	pop	r28
     536:	08 95       	ret

00000538 <lcd_st7565r_InitInterface>:
//-----------------------------------------------------------------------------

uint8_t lcd_st7565r_CharWidth( void )
{
	return lcd_st7565r_curFont->chWidth;
}
     538:	ef 92       	push	r14
     53a:	ff 92       	push	r15
     53c:	0f 93       	push	r16
     53e:	1f 93       	push	r17
     540:	e1 2c       	mov	r14, r1
     542:	01 e0       	ldi	r16, 0x01	; 1
     544:	21 e0       	ldi	r18, 0x01	; 1
     546:	40 e0       	ldi	r20, 0x00	; 0
     548:	68 e0       	ldi	r22, 0x08	; 8
     54a:	80 e0       	ldi	r24, 0x00	; 0
     54c:	96 e0       	ldi	r25, 0x06	; 6
     54e:	0e 94 24 0d 	call	0x1a48	; 0x1a48 <GPIO_CfgPins>
     552:	00 e0       	ldi	r16, 0x00	; 0
     554:	21 e0       	ldi	r18, 0x01	; 1
     556:	40 e0       	ldi	r20, 0x00	; 0
     558:	61 e0       	ldi	r22, 0x01	; 1
     55a:	80 e6       	ldi	r24, 0x60	; 96
     55c:	96 e0       	ldi	r25, 0x06	; 6
     55e:	0e 94 24 0d 	call	0x1a48	; 0x1a48 <GPIO_CfgPins>
     562:	68 e0       	ldi	r22, 0x08	; 8
     564:	80 ea       	ldi	r24, 0xA0	; 160
     566:	96 e0       	ldi	r25, 0x06	; 6
     568:	0e 94 2d 10 	call	0x205a	; 0x205a <USART_CfgSpiSSPin>
     56c:	43 e0       	ldi	r20, 0x03	; 3
     56e:	62 e0       	ldi	r22, 0x02	; 2
     570:	80 e6       	ldi	r24, 0x60	; 96
     572:	96 e0       	ldi	r25, 0x06	; 6
     574:	0e 94 20 10 	call	0x2040	; 0x2040 <USART_CfgSpiSCKPin>
     578:	68 e0       	ldi	r22, 0x08	; 8
     57a:	80 e6       	ldi	r24, 0x60	; 96
     57c:	96 e0       	ldi	r25, 0x06	; 6
     57e:	0e 94 8c 0e 	call	0x1d18	; 0x1d18 <USART_CfgUsartTxDPin>
     582:	60 ec       	ldi	r22, 0xC0	; 192
     584:	80 ea       	ldi	r24, 0xA0	; 160
     586:	99 e0       	ldi	r25, 0x09	; 9
     588:	0e 94 87 0e 	call	0x1d0e	; 0x1d0e <USART_SelectMode>
     58c:	40 e0       	ldi	r20, 0x00	; 0
     58e:	63 e0       	ldi	r22, 0x03	; 3
     590:	80 ea       	ldi	r24, 0xA0	; 160
     592:	99 e0       	ldi	r25, 0x09	; 9
     594:	0e 94 34 10 	call	0x2068	; 0x2068 <USART_CfgSpiParam>
     598:	e1 2c       	mov	r14, r1
     59a:	14 e2       	ldi	r17, 0x24	; 36
     59c:	f1 2e       	mov	r15, r17
     59e:	04 ef       	ldi	r16, 0xF4	; 244
     5a0:	10 e0       	ldi	r17, 0x00	; 0
     5a2:	20 e4       	ldi	r18, 0x40	; 64
     5a4:	32 e4       	ldi	r19, 0x42	; 66
     5a6:	4f e0       	ldi	r20, 0x0F	; 15
     5a8:	50 e0       	ldi	r21, 0x00	; 0
     5aa:	60 e0       	ldi	r22, 0x00	; 0
     5ac:	80 ea       	ldi	r24, 0xA0	; 160
     5ae:	99 e0       	ldi	r25, 0x09	; 9
     5b0:	0e 94 f1 0f 	call	0x1fe2	; 0x1fe2 <USART_SetBaudRate>
     5b4:	e0 ea       	ldi	r30, 0xA0	; 160
     5b6:	f9 e0       	ldi	r31, 0x09	; 9
     5b8:	84 81       	ldd	r24, Z+4	; 0x04
     5ba:	88 60       	ori	r24, 0x08	; 8
     5bc:	84 83       	std	Z+4, r24	; 0x04
     5be:	84 81       	ldd	r24, Z+4	; 0x04
     5c0:	80 61       	ori	r24, 0x10	; 16
     5c2:	84 83       	std	Z+4, r24	; 0x04
     5c4:	1f 91       	pop	r17
     5c6:	0f 91       	pop	r16
     5c8:	ff 90       	pop	r15
     5ca:	ef 90       	pop	r14
     5cc:	08 95       	ret

000005ce <lcd_st7565r_ClrScr>:
     5ce:	91 e0       	ldi	r25, 0x01	; 1
     5d0:	81 30       	cpi	r24, 0x01	; 1
     5d2:	09 f0       	breq	.+2      	; 0x5d6 <lcd_st7565r_ClrScr+0x8>
     5d4:	90 e0       	ldi	r25, 0x00	; 0
     5d6:	89 2f       	mov	r24, r25
     5d8:	81 95       	neg	r24
     5da:	ee e6       	ldi	r30, 0x6E	; 110
     5dc:	ff e2       	ldi	r31, 0x2F	; 47
     5de:	2e e6       	ldi	r18, 0x6E	; 110
     5e0:	31 e3       	ldi	r19, 0x31	; 49
     5e2:	81 93       	st	Z+, r24
     5e4:	e2 17       	cp	r30, r18
     5e6:	f3 07       	cpc	r31, r19
     5e8:	e1 f7       	brne	.-8      	; 0x5e2 <lcd_st7565r_ClrScr+0x14>
     5ea:	2f e7       	ldi	r18, 0x7F	; 127
     5ec:	40 e0       	ldi	r20, 0x00	; 0
     5ee:	63 e0       	ldi	r22, 0x03	; 3
     5f0:	80 e0       	ldi	r24, 0x00	; 0
     5f2:	0e 94 f8 05 	call	0xbf0	; 0xbf0 <st7565r_put_framebuffer>
     5f6:	08 95       	ret

000005f8 <lcd_st7565r_InitText>:
     5f8:	10 92 6d 2f 	sts	0x2F6D, r1	; 0x802f6d <lcd_st7565r_text_x>
     5fc:	10 92 6c 2f 	sts	0x2F6C, r1	; 0x802f6c <lcd_st7565r_text_y>
     600:	8f ef       	ldi	r24, 0xFF	; 255
     602:	9b e2       	ldi	r25, 0x2B	; 43
     604:	80 93 6a 2f 	sts	0x2F6A, r24	; 0x802f6a <__data_end>
     608:	90 93 6b 2f 	sts	0x2F6B, r25	; 0x802f6b <__data_end+0x1>
     60c:	08 95       	ret

0000060e <lcd_st7565r_InitCtrl>:
     60e:	0e 94 d2 04 	call	0x9a4	; 0x9a4 <st7565r_init>
     612:	0e 94 fc 02 	call	0x5f8	; 0x5f8 <lcd_st7565r_InitText>
     616:	08 95       	ret

00000618 <lcd_st7565r_SelectFont>:
     618:	81 30       	cpi	r24, 0x01	; 1
     61a:	61 f0       	breq	.+24     	; 0x634 <lcd_st7565r_SelectFont+0x1c>
     61c:	18 f0       	brcs	.+6      	; 0x624 <lcd_st7565r_SelectFont+0xc>
     61e:	82 30       	cpi	r24, 0x02	; 2
     620:	89 f0       	breq	.+34     	; 0x644 <lcd_st7565r_SelectFont+0x2c>
     622:	18 c0       	rjmp	.+48     	; 0x654 <lcd_st7565r_SelectFont+0x3c>
     624:	8f ef       	ldi	r24, 0xFF	; 255
     626:	9b e2       	ldi	r25, 0x2B	; 43
     628:	80 93 6a 2f 	sts	0x2F6A, r24	; 0x802f6a <__data_end>
     62c:	90 93 6b 2f 	sts	0x2F6B, r25	; 0x802f6b <__data_end+0x1>
     630:	80 e0       	ldi	r24, 0x00	; 0
     632:	08 95       	ret
     634:	85 e8       	ldi	r24, 0x85	; 133
     636:	97 e2       	ldi	r25, 0x27	; 39
     638:	80 93 6a 2f 	sts	0x2F6A, r24	; 0x802f6a <__data_end>
     63c:	90 93 6b 2f 	sts	0x2F6B, r25	; 0x802f6b <__data_end+0x1>
     640:	81 e0       	ldi	r24, 0x01	; 1
     642:	08 95       	ret
     644:	83 e1       	ldi	r24, 0x13	; 19
     646:	90 e2       	ldi	r25, 0x20	; 32
     648:	80 93 6a 2f 	sts	0x2F6A, r24	; 0x802f6a <__data_end>
     64c:	90 93 6b 2f 	sts	0x2F6B, r25	; 0x802f6b <__data_end+0x1>
     650:	82 e0       	ldi	r24, 0x02	; 2
     652:	08 95       	ret
     654:	8f ef       	ldi	r24, 0xFF	; 255
     656:	08 95       	ret

00000658 <lcd_st7565r_GotoTextXY>:
     658:	88 23       	and	r24, r24
     65a:	14 f0       	brlt	.+4      	; 0x660 <lcd_st7565r_GotoTextXY+0x8>
     65c:	80 93 6d 2f 	sts	0x2F6D, r24	; 0x802f6d <lcd_st7565r_text_x>
     660:	60 32       	cpi	r22, 0x20	; 32
     662:	10 f4       	brcc	.+4      	; 0x668 <lcd_st7565r_GotoTextXY+0x10>
     664:	60 93 6c 2f 	sts	0x2F6C, r22	; 0x802f6c <lcd_st7565r_text_y>
     668:	08 95       	ret

0000066a <lcd_st7565r_DrawChar>:
//-----------------------------------------------------------------------------

#if !defined(LCD_ST7565R_NO_FONT)

uint8_t lcd_st7565r_DrawChar( char c, uint8_t color )
{
     66a:	2f 92       	push	r2
     66c:	3f 92       	push	r3
     66e:	4f 92       	push	r4
     670:	5f 92       	push	r5
     672:	7f 92       	push	r7
     674:	8f 92       	push	r8
     676:	9f 92       	push	r9
     678:	af 92       	push	r10
     67a:	bf 92       	push	r11
     67c:	cf 92       	push	r12
     67e:	df 92       	push	r13
     680:	ef 92       	push	r14
     682:	ff 92       	push	r15
     684:	0f 93       	push	r16
     686:	1f 93       	push	r17
     688:	cf 93       	push	r28
     68a:	df 93       	push	r29
     68c:	00 d0       	rcall	.+0      	; 0x68e <lcd_st7565r_DrawChar+0x24>
     68e:	1f 92       	push	r1
     690:	cd b7       	in	r28, 0x3d	; 61
     692:	de b7       	in	r29, 0x3e	; 62
	uint8_t		x1, y1, x;
	uint32_t	col_value, fgnd_mask, bgnd_mask;
	uint8_t		mask_shift;
	uint16_t	matrix_idx;

	if( (c < lcd_st7565r_curFont->chFirst) || (c > lcd_st7565r_curFont->chLast) )
     694:	e0 91 6a 2f 	lds	r30, 0x2F6A	; 0x802f6a <__data_end>
     698:	f0 91 6b 2f 	lds	r31, 0x2F6B	; 0x802f6b <__data_end+0x1>
     69c:	22 81       	ldd	r18, Z+2	; 0x02
     69e:	82 17       	cp	r24, r18
     6a0:	08 f4       	brcc	.+2      	; 0x6a4 <lcd_st7565r_DrawChar+0x3a>
     6a2:	ea c0       	rjmp	.+468    	; 0x878 <lcd_st7565r_DrawChar+0x20e>
     6a4:	93 81       	ldd	r25, Z+3	; 0x03
     6a6:	98 17       	cp	r25, r24
     6a8:	08 f4       	brcc	.+2      	; 0x6ac <lcd_st7565r_DrawChar+0x42>
     6aa:	e8 c0       	rjmp	.+464    	; 0x87c <lcd_st7565r_DrawChar+0x212>
		return 1;

	x1 = lcd_st7565r_text_x + lcd_st7565r_curFont->chWidth - 1;
	y1 = lcd_st7565r_text_y + lcd_st7565r_curFont->chHeight - 1;
     6ac:	41 81       	ldd	r20, Z+1	; 0x01
     6ae:	30 91 6c 2f 	lds	r19, 0x2F6C	; 0x802f6c <lcd_st7565r_text_y>
     6b2:	e4 2e       	mov	r14, r20
     6b4:	e3 0e       	add	r14, r19
     6b6:	9f ef       	ldi	r25, 0xFF	; 255
     6b8:	9e 0d       	add	r25, r14

	if( y1 > LCD_HEIGHT - 1 )
     6ba:	90 32       	cpi	r25, 0x20	; 32
     6bc:	08 f0       	brcs	.+2      	; 0x6c0 <lcd_st7565r_DrawChar+0x56>
     6be:	e0 c0       	rjmp	.+448    	; 0x880 <lcd_st7565r_DrawChar+0x216>
	uint16_t	matrix_idx;

	if( (c < lcd_st7565r_curFont->chFirst) || (c > lcd_st7565r_curFont->chLast) )
		return 1;

	x1 = lcd_st7565r_text_x + lcd_st7565r_curFont->chWidth - 1;
     6c0:	50 81       	ld	r21, Z
     6c2:	f0 90 6d 2f 	lds	r15, 0x2F6D	; 0x802f6d <lcd_st7565r_text_x>
     6c6:	c5 2e       	mov	r12, r21
     6c8:	cf 0c       	add	r12, r15
     6ca:	ca 94       	dec	r12
	y1 = lcd_st7565r_text_y + lcd_st7565r_curFont->chHeight - 1;

	if( y1 > LCD_HEIGHT - 1 )
		return 2;

	if( x1 > LCD_WIDTH - 1 )
     6cc:	cc 20       	and	r12, r12
     6ce:	0c f4       	brge	.+2      	; 0x6d2 <lcd_st7565r_DrawChar+0x68>
     6d0:	d9 c0       	rjmp	.+434    	; 0x884 <lcd_st7565r_DrawChar+0x21a>
     6d2:	d6 2e       	mov	r13, r22
		return 3;

	page0 = lcd_st7565r_text_y / ST7565R_PIXELS_PER_BYTE;
     6d4:	73 2e       	mov	r7, r19
     6d6:	76 94       	lsr	r7
     6d8:	76 94       	lsr	r7
     6da:	76 94       	lsr	r7
	page1 = y1 / ST7565R_PIXELS_PER_BYTE;
     6dc:	e9 2e       	mov	r14, r25
     6de:	e6 94       	lsr	r14
     6e0:	e6 94       	lsr	r14
     6e2:	e6 94       	lsr	r14
	mask_shift = lcd_st7565r_text_y % ST7565R_PIXELS_PER_BYTE;

	matrix_idx = (c - lcd_st7565r_curFont->chFirst) * (lcd_st7565r_curFont->chHeight / 8 + 1) * lcd_st7565r_curFont->chWidth;
     6e4:	64 2f       	mov	r22, r20
     6e6:	66 95       	lsr	r22
     6e8:	66 95       	lsr	r22
     6ea:	66 95       	lsr	r22
     6ec:	70 e0       	ldi	r23, 0x00	; 0
     6ee:	6f 5f       	subi	r22, 0xFF	; 255
     6f0:	7f 4f       	sbci	r23, 0xFF	; 255
     6f2:	90 e0       	ldi	r25, 0x00	; 0
     6f4:	82 1b       	sub	r24, r18
     6f6:	91 09       	sbc	r25, r1
     6f8:	68 9f       	mul	r22, r24
     6fa:	f0 01       	movw	r30, r0
     6fc:	69 9f       	mul	r22, r25
     6fe:	f0 0d       	add	r31, r0
     700:	78 9f       	mul	r23, r24
     702:	f0 0d       	add	r31, r0
     704:	11 24       	eor	r1, r1
     706:	5e 9f       	mul	r21, r30
     708:	40 01       	movw	r8, r0
     70a:	5f 9f       	mul	r21, r31
     70c:	90 0c       	add	r9, r0
     70e:	11 24       	eor	r1, r1
     710:	8b 82       	std	Y+3, r8	; 0x03
     712:	9c 82       	std	Y+4, r9	; 0x04

	bgnd_mask = 0xFFFFFFFF >> ((uint8_t)32 - lcd_st7565r_curFont->chHeight);
     714:	80 e2       	ldi	r24, 0x20	; 32
     716:	90 e0       	ldi	r25, 0x00	; 0
     718:	84 1b       	sub	r24, r20
     71a:	91 09       	sbc	r25, r1
     71c:	4f ef       	ldi	r20, 0xFF	; 255
     71e:	5f ef       	ldi	r21, 0xFF	; 255
     720:	ba 01       	movw	r22, r20
     722:	4a 01       	movw	r8, r20
     724:	5b 01       	movw	r10, r22
     726:	04 c0       	rjmp	.+8      	; 0x730 <lcd_st7565r_DrawChar+0xc6>
     728:	b6 94       	lsr	r11
     72a:	a7 94       	ror	r10
     72c:	97 94       	ror	r9
     72e:	87 94       	ror	r8
     730:	8a 95       	dec	r24
     732:	d2 f7       	brpl	.-12     	; 0x728 <lcd_st7565r_DrawChar+0xbe>
     734:	d5 01       	movw	r26, r10
     736:	c4 01       	movw	r24, r8
	bgnd_mask <<= mask_shift;
     738:	37 70       	andi	r19, 0x07	; 7
     73a:	a3 2e       	mov	r10, r19
     73c:	b1 2c       	mov	r11, r1
     73e:	a9 82       	std	Y+1, r10	; 0x01
     740:	ba 82       	std	Y+2, r11	; 0x02
     742:	1c 01       	movw	r2, r24
     744:	2d 01       	movw	r4, r26
     746:	04 c0       	rjmp	.+8      	; 0x750 <lcd_st7565r_DrawChar+0xe6>
     748:	22 0c       	add	r2, r2
     74a:	33 1c       	adc	r3, r3
     74c:	44 1c       	adc	r4, r4
     74e:	55 1c       	adc	r5, r5
     750:	3a 95       	dec	r19
     752:	d2 f7       	brpl	.-12     	; 0x748 <lcd_st7565r_DrawChar+0xde>

	for( x = lcd_st7565r_text_x; x <= x1; x++ )
     754:	cf 14       	cp	r12, r15
     756:	08 f4       	brcc	.+2      	; 0x75a <lcd_st7565r_DrawChar+0xf0>
     758:	7c c0       	rjmp	.+248    	; 0x852 <lcd_st7565r_DrawChar+0x1e8>
		case LCD_PIXEL_CLR:
			col_value |= bgnd_mask;
			col_value &= ~fgnd_mask;
			break;
		case LCD_PIXEL_SET:
			col_value &= ~bgnd_mask;
     75a:	52 01       	movw	r10, r4
     75c:	41 01       	movw	r8, r2
     75e:	80 94       	com	r8
     760:	90 94       	com	r9
     762:	a0 94       	com	r10
     764:	b0 94       	com	r11
	bgnd_mask = 0xFFFFFFFF >> ((uint8_t)32 - lcd_st7565r_curFont->chHeight);
	bgnd_mask <<= mask_shift;

	for( x = lcd_st7565r_text_x; x <= x1; x++ )
	{
		col_value = st7565r_read_column( page0, page1, x );
     766:	4f 2d       	mov	r20, r15
     768:	6e 2d       	mov	r22, r14
     76a:	87 2d       	mov	r24, r7
     76c:	0e 94 a0 06 	call	0xd40	; 0xd40 <st7565r_read_column>
     770:	8b 01       	movw	r16, r22
     772:	9c 01       	movw	r18, r24
		
		fgnd_mask = lcd_st7565r_curFont->chMatrix[matrix_idx];
     774:	e0 91 6a 2f 	lds	r30, 0x2F6A	; 0x802f6a <__data_end>
     778:	f0 91 6b 2f 	lds	r31, 0x2F6B	; 0x802f6b <__data_end+0x1>
     77c:	64 81       	ldd	r22, Z+4	; 0x04
     77e:	75 81       	ldd	r23, Z+5	; 0x05
     780:	ab 81       	ldd	r26, Y+3	; 0x03
     782:	bc 81       	ldd	r27, Y+4	; 0x04
     784:	a6 0f       	add	r26, r22
     786:	b7 1f       	adc	r27, r23
     788:	8c 91       	ld	r24, X
     78a:	90 e0       	ldi	r25, 0x00	; 0
     78c:	a0 e0       	ldi	r26, 0x00	; 0
     78e:	b0 e0       	ldi	r27, 0x00	; 0
		matrix_idx++;
     790:	4b 81       	ldd	r20, Y+3	; 0x03
     792:	5c 81       	ldd	r21, Y+4	; 0x04
     794:	4f 5f       	subi	r20, 0xFF	; 255
     796:	5f 4f       	sbci	r21, 0xFF	; 255
		if( lcd_st7565r_curFont->chHeight > 8 )
     798:	e1 81       	ldd	r30, Z+1	; 0x01
     79a:	e9 30       	cpi	r30, 0x09	; 9
     79c:	a0 f0       	brcs	.+40     	; 0x7c6 <lcd_st7565r_DrawChar+0x15c>
		{
			fgnd_mask |= (uint16_t)lcd_st7565r_curFont->chMatrix[matrix_idx] << 8;
     79e:	fb 01       	movw	r30, r22
     7a0:	e4 0f       	add	r30, r20
     7a2:	f5 1f       	adc	r31, r21
     7a4:	40 81       	ld	r20, Z
     7a6:	50 e0       	ldi	r21, 0x00	; 0
     7a8:	54 2f       	mov	r21, r20
     7aa:	44 27       	eor	r20, r20
     7ac:	60 e0       	ldi	r22, 0x00	; 0
     7ae:	70 e0       	ldi	r23, 0x00	; 0
     7b0:	84 2b       	or	r24, r20
     7b2:	95 2b       	or	r25, r21
     7b4:	a6 2b       	or	r26, r22
     7b6:	b7 2b       	or	r27, r23
			matrix_idx++;
     7b8:	4b 81       	ldd	r20, Y+3	; 0x03
     7ba:	5c 81       	ldd	r21, Y+4	; 0x04
     7bc:	4e 5f       	subi	r20, 0xFE	; 254
     7be:	5f 4f       	sbci	r21, 0xFF	; 255
     7c0:	4b 83       	std	Y+3, r20	; 0x03
     7c2:	5c 83       	std	Y+4, r21	; 0x04
     7c4:	02 c0       	rjmp	.+4      	; 0x7ca <lcd_st7565r_DrawChar+0x160>
	for( x = lcd_st7565r_text_x; x <= x1; x++ )
	{
		col_value = st7565r_read_column( page0, page1, x );
		
		fgnd_mask = lcd_st7565r_curFont->chMatrix[matrix_idx];
		matrix_idx++;
     7c6:	4b 83       	std	Y+3, r20	; 0x03
     7c8:	5c 83       	std	Y+4, r21	; 0x04
		if( lcd_st7565r_curFont->chHeight > 8 )
		{
			fgnd_mask |= (uint16_t)lcd_st7565r_curFont->chMatrix[matrix_idx] << 8;
			matrix_idx++;
		}
		fgnd_mask <<= mask_shift;
     7ca:	09 80       	ldd	r0, Y+1	; 0x01
     7cc:	04 c0       	rjmp	.+8      	; 0x7d6 <lcd_st7565r_DrawChar+0x16c>
     7ce:	88 0f       	add	r24, r24
     7d0:	99 1f       	adc	r25, r25
     7d2:	aa 1f       	adc	r26, r26
     7d4:	bb 1f       	adc	r27, r27
     7d6:	0a 94       	dec	r0
     7d8:	d2 f7       	brpl	.-12     	; 0x7ce <lcd_st7565r_DrawChar+0x164>

		switch (color)
     7da:	51 e0       	ldi	r21, 0x01	; 1
     7dc:	d5 16       	cp	r13, r21
     7de:	b9 f0       	breq	.+46     	; 0x80e <lcd_st7565r_DrawChar+0x1a4>
     7e0:	d5 16       	cp	r13, r21
     7e2:	20 f0       	brcs	.+8      	; 0x7ec <lcd_st7565r_DrawChar+0x182>
     7e4:	42 e0       	ldi	r20, 0x02	; 2
     7e6:	d4 16       	cp	r13, r20
     7e8:	f9 f0       	breq	.+62     	; 0x828 <lcd_st7565r_DrawChar+0x1be>
     7ea:	2a c0       	rjmp	.+84     	; 0x840 <lcd_st7565r_DrawChar+0x1d6>
		{
		case LCD_PIXEL_CLR:
			col_value |= bgnd_mask;
     7ec:	b2 01       	movw	r22, r4
     7ee:	a1 01       	movw	r20, r2
     7f0:	40 2b       	or	r20, r16
     7f2:	51 2b       	or	r21, r17
     7f4:	62 2b       	or	r22, r18
     7f6:	73 2b       	or	r23, r19
			col_value &= ~fgnd_mask;
     7f8:	80 95       	com	r24
     7fa:	90 95       	com	r25
     7fc:	a0 95       	com	r26
     7fe:	b0 95       	com	r27
     800:	8c 01       	movw	r16, r24
     802:	9d 01       	movw	r18, r26
     804:	04 23       	and	r16, r20
     806:	15 23       	and	r17, r21
     808:	26 23       	and	r18, r22
     80a:	37 23       	and	r19, r23
			break;
     80c:	19 c0       	rjmp	.+50     	; 0x840 <lcd_st7565r_DrawChar+0x1d6>
		case LCD_PIXEL_SET:
			col_value &= ~bgnd_mask;
     80e:	b5 01       	movw	r22, r10
     810:	a4 01       	movw	r20, r8
     812:	40 23       	and	r20, r16
     814:	51 23       	and	r21, r17
     816:	62 23       	and	r22, r18
     818:	73 23       	and	r23, r19
			col_value |= fgnd_mask;
     81a:	8c 01       	movw	r16, r24
     81c:	9d 01       	movw	r18, r26
     81e:	04 2b       	or	r16, r20
     820:	15 2b       	or	r17, r21
     822:	26 2b       	or	r18, r22
     824:	37 2b       	or	r19, r23
			break;
     826:	0c c0       	rjmp	.+24     	; 0x840 <lcd_st7565r_DrawChar+0x1d6>
		case LCD_PIXEL_TGL:
			col_value ^= bgnd_mask;
     828:	b2 01       	movw	r22, r4
     82a:	a1 01       	movw	r20, r2
     82c:	40 27       	eor	r20, r16
     82e:	51 27       	eor	r21, r17
     830:	62 27       	eor	r22, r18
     832:	73 27       	eor	r23, r19
			col_value ^= fgnd_mask;
     834:	8c 01       	movw	r16, r24
     836:	9d 01       	movw	r18, r26
     838:	04 27       	eor	r16, r20
     83a:	15 27       	eor	r17, r21
     83c:	26 27       	eor	r18, r22
     83e:	37 27       	eor	r19, r23
			break;
		default:
			break;
		}
		st7565r_write_column( page0, page1, x, col_value );
     840:	4f 2d       	mov	r20, r15
     842:	6e 2d       	mov	r22, r14
     844:	87 2d       	mov	r24, r7
     846:	0e 94 d7 06 	call	0xdae	; 0xdae <st7565r_write_column>
	matrix_idx = (c - lcd_st7565r_curFont->chFirst) * (lcd_st7565r_curFont->chHeight / 8 + 1) * lcd_st7565r_curFont->chWidth;

	bgnd_mask = 0xFFFFFFFF >> ((uint8_t)32 - lcd_st7565r_curFont->chHeight);
	bgnd_mask <<= mask_shift;

	for( x = lcd_st7565r_text_x; x <= x1; x++ )
     84a:	f3 94       	inc	r15
     84c:	cf 14       	cp	r12, r15
     84e:	08 f0       	brcs	.+2      	; 0x852 <lcd_st7565r_DrawChar+0x1e8>
     850:	8a cf       	rjmp	.-236    	; 0x766 <lcd_st7565r_DrawChar+0xfc>
			break;
		}
		st7565r_write_column( page0, page1, x, col_value );
	}

	st7565r_put_framebuffer( page0, page1, lcd_st7565r_text_x, x1 );
     852:	2c 2d       	mov	r18, r12
     854:	40 91 6d 2f 	lds	r20, 0x2F6D	; 0x802f6d <lcd_st7565r_text_x>
     858:	6e 2d       	mov	r22, r14
     85a:	87 2d       	mov	r24, r7
     85c:	0e 94 f8 05 	call	0xbf0	; 0xbf0 <st7565r_put_framebuffer>

	lcd_st7565r_text_x += lcd_st7565r_curFont->chWidth;
     860:	e0 91 6a 2f 	lds	r30, 0x2F6A	; 0x802f6a <__data_end>
     864:	f0 91 6b 2f 	lds	r31, 0x2F6B	; 0x802f6b <__data_end+0x1>
     868:	90 91 6d 2f 	lds	r25, 0x2F6D	; 0x802f6d <lcd_st7565r_text_x>
     86c:	80 81       	ld	r24, Z
     86e:	89 0f       	add	r24, r25
     870:	80 93 6d 2f 	sts	0x2F6D, r24	; 0x802f6d <lcd_st7565r_text_x>
	
	return 0;
     874:	80 e0       	ldi	r24, 0x00	; 0
     876:	07 c0       	rjmp	.+14     	; 0x886 <lcd_st7565r_DrawChar+0x21c>
	uint32_t	col_value, fgnd_mask, bgnd_mask;
	uint8_t		mask_shift;
	uint16_t	matrix_idx;

	if( (c < lcd_st7565r_curFont->chFirst) || (c > lcd_st7565r_curFont->chLast) )
		return 1;
     878:	81 e0       	ldi	r24, 0x01	; 1
     87a:	05 c0       	rjmp	.+10     	; 0x886 <lcd_st7565r_DrawChar+0x21c>
     87c:	81 e0       	ldi	r24, 0x01	; 1
     87e:	03 c0       	rjmp	.+6      	; 0x886 <lcd_st7565r_DrawChar+0x21c>

	x1 = lcd_st7565r_text_x + lcd_st7565r_curFont->chWidth - 1;
	y1 = lcd_st7565r_text_y + lcd_st7565r_curFont->chHeight - 1;

	if( y1 > LCD_HEIGHT - 1 )
		return 2;
     880:	82 e0       	ldi	r24, 0x02	; 2
     882:	01 c0       	rjmp	.+2      	; 0x886 <lcd_st7565r_DrawChar+0x21c>

	if( x1 > LCD_WIDTH - 1 )
		return 3;
     884:	83 e0       	ldi	r24, 0x03	; 3
	st7565r_put_framebuffer( page0, page1, lcd_st7565r_text_x, x1 );

	lcd_st7565r_text_x += lcd_st7565r_curFont->chWidth;
	
	return 0;
}
     886:	24 96       	adiw	r28, 0x04	; 4
     888:	cd bf       	out	0x3d, r28	; 61
     88a:	de bf       	out	0x3e, r29	; 62
     88c:	df 91       	pop	r29
     88e:	cf 91       	pop	r28
     890:	1f 91       	pop	r17
     892:	0f 91       	pop	r16
     894:	ff 90       	pop	r15
     896:	ef 90       	pop	r14
     898:	df 90       	pop	r13
     89a:	cf 90       	pop	r12
     89c:	bf 90       	pop	r11
     89e:	af 90       	pop	r10
     8a0:	9f 90       	pop	r9
     8a2:	8f 90       	pop	r8
     8a4:	7f 90       	pop	r7
     8a6:	5f 90       	pop	r5
     8a8:	4f 90       	pop	r4
     8aa:	3f 90       	pop	r3
     8ac:	2f 90       	pop	r2
     8ae:	08 95       	ret

000008b0 <lcd_st7565r_DrawText>:

//-----------------------------------------------------------------------------

void lcd_st7565r_DrawText( const char *txt, uint8_t color )
{
     8b0:	1f 93       	push	r17
     8b2:	cf 93       	push	r28
     8b4:	df 93       	push	r29
     8b6:	ec 01       	movw	r28, r24
     8b8:	16 2f       	mov	r17, r22
	int8_t		ret_value;

	while( *txt != '\0' )
     8ba:	88 81       	ld	r24, Y
     8bc:	88 23       	and	r24, r24
     8be:	71 f1       	breq	.+92     	; 0x91c <lcd_st7565r_DrawText+0x6c>
	{
		if( *txt == '\r' )
     8c0:	8d 30       	cpi	r24, 0x0D	; 13
     8c2:	21 f4       	brne	.+8      	; 0x8cc <lcd_st7565r_DrawText+0x1c>
			lcd_st7565r_text_x = 0;
     8c4:	10 92 6d 2f 	sts	0x2F6D, r1	; 0x802f6d <lcd_st7565r_text_x>
     8c8:	fe 01       	movw	r30, r28
     8ca:	23 c0       	rjmp	.+70     	; 0x912 <lcd_st7565r_DrawText+0x62>
		else if( *txt == '\n' )
     8cc:	8a 30       	cpi	r24, 0x0A	; 10
     8ce:	61 f4       	brne	.+24     	; 0x8e8 <lcd_st7565r_DrawText+0x38>
			lcd_st7565r_text_y += lcd_st7565r_curFont->chHeight;
     8d0:	e0 91 6a 2f 	lds	r30, 0x2F6A	; 0x802f6a <__data_end>
     8d4:	f0 91 6b 2f 	lds	r31, 0x2F6B	; 0x802f6b <__data_end+0x1>
     8d8:	90 91 6c 2f 	lds	r25, 0x2F6C	; 0x802f6c <lcd_st7565r_text_y>
     8dc:	81 81       	ldd	r24, Z+1	; 0x01
     8de:	89 0f       	add	r24, r25
     8e0:	80 93 6c 2f 	sts	0x2F6C, r24	; 0x802f6c <lcd_st7565r_text_y>
     8e4:	fe 01       	movw	r30, r28
     8e6:	15 c0       	rjmp	.+42     	; 0x912 <lcd_st7565r_DrawText+0x62>
		else
		{
			ret_value = lcd_st7565r_DrawChar( *txt, color );
     8e8:	61 2f       	mov	r22, r17
     8ea:	0e 94 35 03 	call	0x66a	; 0x66a <lcd_st7565r_DrawChar>
			if( ret_value == 3 )
     8ee:	83 30       	cpi	r24, 0x03	; 3
     8f0:	79 f4       	brne	.+30     	; 0x910 <lcd_st7565r_DrawText+0x60>
			{
				lcd_st7565r_text_x = 0;
     8f2:	10 92 6d 2f 	sts	0x2F6D, r1	; 0x802f6d <lcd_st7565r_text_x>
				lcd_st7565r_text_y += lcd_st7565r_curFont->chHeight;
     8f6:	e0 91 6a 2f 	lds	r30, 0x2F6A	; 0x802f6a <__data_end>
     8fa:	f0 91 6b 2f 	lds	r31, 0x2F6B	; 0x802f6b <__data_end+0x1>
     8fe:	90 91 6c 2f 	lds	r25, 0x2F6C	; 0x802f6c <lcd_st7565r_text_y>
     902:	81 81       	ldd	r24, Z+1	; 0x01
     904:	89 0f       	add	r24, r25
     906:	80 93 6c 2f 	sts	0x2F6C, r24	; 0x802f6c <lcd_st7565r_text_y>
				txt--;
     90a:	fe 01       	movw	r30, r28
     90c:	31 97       	sbiw	r30, 0x01	; 1
     90e:	01 c0       	rjmp	.+2      	; 0x912 <lcd_st7565r_DrawText+0x62>
     910:	fe 01       	movw	r30, r28
			}
		}
		txt++;
     912:	ef 01       	movw	r28, r30
     914:	21 96       	adiw	r28, 0x01	; 1

void lcd_st7565r_DrawText( const char *txt, uint8_t color )
{
	int8_t		ret_value;

	while( *txt != '\0' )
     916:	81 81       	ldd	r24, Z+1	; 0x01
     918:	81 11       	cpse	r24, r1
     91a:	d2 cf       	rjmp	.-92     	; 0x8c0 <lcd_st7565r_DrawText+0x10>
				txt--;
			}
		}
		txt++;
	}
}
     91c:	df 91       	pop	r29
     91e:	cf 91       	pop	r28
     920:	1f 91       	pop	r17
     922:	08 95       	ret

00000924 <st7565r_set_contrast>:
	}
	
	st7565r_FrameBuffer[byte_idx] = byte_value;

	return byte_value;
}
     924:	8e 31       	cpi	r24, 0x1E	; 30
     926:	08 f4       	brcc	.+2      	; 0x92a <st7565r_set_contrast+0x6>
     928:	8e e1       	ldi	r24, 0x1E	; 30
     92a:	89 32       	cpi	r24, 0x29	; 41
     92c:	08 f0       	brcs	.+2      	; 0x930 <st7565r_set_contrast+0xc>
     92e:	88 e2       	ldi	r24, 0x28	; 40
     930:	98 e0       	ldi	r25, 0x08	; 8
     932:	90 93 a6 06 	sts	0x06A6, r25	; 0x8006a6 <__TEXT_REGION_LENGTH__+0x7006a6>
     936:	91 e0       	ldi	r25, 0x01	; 1
     938:	90 93 66 06 	sts	0x0666, r25	; 0x800666 <__TEXT_REGION_LENGTH__+0x700666>
     93c:	e0 ea       	ldi	r30, 0xA0	; 160
     93e:	f9 e0       	ldi	r31, 0x09	; 9
     940:	91 81       	ldd	r25, Z+1	; 0x01
     942:	95 ff       	sbrs	r25, 5
     944:	fd cf       	rjmp	.-6      	; 0x940 <st7565r_set_contrast+0x1c>
     946:	91 e8       	ldi	r25, 0x81	; 129
     948:	90 93 a0 09 	sts	0x09A0, r25	; 0x8009a0 <__TEXT_REGION_LENGTH__+0x7009a0>
     94c:	e0 ea       	ldi	r30, 0xA0	; 160
     94e:	f9 e0       	ldi	r31, 0x09	; 9
     950:	91 81       	ldd	r25, Z+1	; 0x01
     952:	96 ff       	sbrs	r25, 6
     954:	fd cf       	rjmp	.-6      	; 0x950 <st7565r_set_contrast+0x2c>
     956:	e0 ea       	ldi	r30, 0xA0	; 160
     958:	f9 e0       	ldi	r31, 0x09	; 9
     95a:	91 81       	ldd	r25, Z+1	; 0x01
     95c:	90 64       	ori	r25, 0x40	; 64
     95e:	91 83       	std	Z+1, r25	; 0x01
     960:	90 81       	ld	r25, Z
     962:	e0 ea       	ldi	r30, 0xA0	; 160
     964:	f6 e0       	ldi	r31, 0x06	; 6
     966:	98 e0       	ldi	r25, 0x08	; 8
     968:	95 83       	std	Z+5, r25	; 0x05
     96a:	28 2f       	mov	r18, r24
     96c:	20 95       	com	r18
     96e:	2f 73       	andi	r18, 0x3F	; 63
     970:	96 83       	std	Z+6, r25	; 0x06
     972:	91 e0       	ldi	r25, 0x01	; 1
     974:	90 93 66 06 	sts	0x0666, r25	; 0x800666 <__TEXT_REGION_LENGTH__+0x700666>
     978:	e0 ea       	ldi	r30, 0xA0	; 160
     97a:	f9 e0       	ldi	r31, 0x09	; 9
     97c:	91 81       	ldd	r25, Z+1	; 0x01
     97e:	95 ff       	sbrs	r25, 5
     980:	fd cf       	rjmp	.-6      	; 0x97c <st7565r_set_contrast+0x58>
     982:	20 93 a0 09 	sts	0x09A0, r18	; 0x8009a0 <__TEXT_REGION_LENGTH__+0x7009a0>
     986:	e0 ea       	ldi	r30, 0xA0	; 160
     988:	f9 e0       	ldi	r31, 0x09	; 9
     98a:	91 81       	ldd	r25, Z+1	; 0x01
     98c:	96 ff       	sbrs	r25, 6
     98e:	fd cf       	rjmp	.-6      	; 0x98a <st7565r_set_contrast+0x66>
     990:	e0 ea       	ldi	r30, 0xA0	; 160
     992:	f9 e0       	ldi	r31, 0x09	; 9
     994:	91 81       	ldd	r25, Z+1	; 0x01
     996:	90 64       	ori	r25, 0x40	; 64
     998:	91 83       	std	Z+1, r25	; 0x01
     99a:	90 81       	ld	r25, Z
     99c:	98 e0       	ldi	r25, 0x08	; 8
     99e:	90 93 a5 06 	sts	0x06A5, r25	; 0x8006a5 <__TEXT_REGION_LENGTH__+0x7006a5>
     9a2:	08 95       	ret

000009a4 <st7565r_init>:
     9a4:	1f 93       	push	r17
     9a6:	cf 93       	push	r28
     9a8:	df 93       	push	r29
     9aa:	e0 e0       	ldi	r30, 0x00	; 0
     9ac:	f6 e0       	ldi	r31, 0x06	; 6
     9ae:	88 e0       	ldi	r24, 0x08	; 8
     9b0:	86 83       	std	Z+6, r24	; 0x06
     9b2:	95 e3       	ldi	r25, 0x35	; 53
     9b4:	9a 95       	dec	r25
     9b6:	f1 f7       	brne	.-4      	; 0x9b4 <st7565r_init+0x10>
     9b8:	00 00       	nop
     9ba:	85 83       	std	Z+5, r24	; 0x05
     9bc:	95 e3       	ldi	r25, 0x35	; 53
     9be:	9a 95       	dec	r25
     9c0:	f1 f7       	brne	.-4      	; 0x9be <st7565r_init+0x1a>
     9c2:	00 00       	nop
     9c4:	e0 e6       	ldi	r30, 0x60	; 96
     9c6:	f6 e0       	ldi	r31, 0x06	; 6
     9c8:	91 e0       	ldi	r25, 0x01	; 1
     9ca:	96 83       	std	Z+6, r25	; 0x06
     9cc:	80 93 a6 06 	sts	0x06A6, r24	; 0x8006a6 <__TEXT_REGION_LENGTH__+0x7006a6>
     9d0:	96 83       	std	Z+6, r25	; 0x06
     9d2:	e0 ea       	ldi	r30, 0xA0	; 160
     9d4:	f9 e0       	ldi	r31, 0x09	; 9
     9d6:	81 81       	ldd	r24, Z+1	; 0x01
     9d8:	85 ff       	sbrs	r24, 5
     9da:	fd cf       	rjmp	.-6      	; 0x9d6 <st7565r_init+0x32>
     9dc:	80 ea       	ldi	r24, 0xA0	; 160
     9de:	80 93 a0 09 	sts	0x09A0, r24	; 0x8009a0 <__TEXT_REGION_LENGTH__+0x7009a0>
     9e2:	e0 ea       	ldi	r30, 0xA0	; 160
     9e4:	f9 e0       	ldi	r31, 0x09	; 9
     9e6:	81 81       	ldd	r24, Z+1	; 0x01
     9e8:	86 ff       	sbrs	r24, 6
     9ea:	fd cf       	rjmp	.-6      	; 0x9e6 <st7565r_init+0x42>
     9ec:	e0 ea       	ldi	r30, 0xA0	; 160
     9ee:	f9 e0       	ldi	r31, 0x09	; 9
     9f0:	81 81       	ldd	r24, Z+1	; 0x01
     9f2:	80 64       	ori	r24, 0x40	; 64
     9f4:	81 83       	std	Z+1, r24	; 0x01
     9f6:	80 81       	ld	r24, Z
     9f8:	e0 ea       	ldi	r30, 0xA0	; 160
     9fa:	f6 e0       	ldi	r31, 0x06	; 6
     9fc:	88 e0       	ldi	r24, 0x08	; 8
     9fe:	85 83       	std	Z+5, r24	; 0x05
     a00:	86 83       	std	Z+6, r24	; 0x06
     a02:	81 e0       	ldi	r24, 0x01	; 1
     a04:	80 93 66 06 	sts	0x0666, r24	; 0x800666 <__TEXT_REGION_LENGTH__+0x700666>
     a08:	e0 ea       	ldi	r30, 0xA0	; 160
     a0a:	f9 e0       	ldi	r31, 0x09	; 9
     a0c:	81 81       	ldd	r24, Z+1	; 0x01
     a0e:	85 ff       	sbrs	r24, 5
     a10:	fd cf       	rjmp	.-6      	; 0xa0c <st7565r_init+0x68>
     a12:	86 ea       	ldi	r24, 0xA6	; 166
     a14:	80 93 a0 09 	sts	0x09A0, r24	; 0x8009a0 <__TEXT_REGION_LENGTH__+0x7009a0>
     a18:	e0 ea       	ldi	r30, 0xA0	; 160
     a1a:	f9 e0       	ldi	r31, 0x09	; 9
     a1c:	81 81       	ldd	r24, Z+1	; 0x01
     a1e:	86 ff       	sbrs	r24, 6
     a20:	fd cf       	rjmp	.-6      	; 0xa1c <st7565r_init+0x78>
     a22:	e0 ea       	ldi	r30, 0xA0	; 160
     a24:	f9 e0       	ldi	r31, 0x09	; 9
     a26:	81 81       	ldd	r24, Z+1	; 0x01
     a28:	80 64       	ori	r24, 0x40	; 64
     a2a:	81 83       	std	Z+1, r24	; 0x01
     a2c:	80 81       	ld	r24, Z
     a2e:	e0 ea       	ldi	r30, 0xA0	; 160
     a30:	f6 e0       	ldi	r31, 0x06	; 6
     a32:	88 e0       	ldi	r24, 0x08	; 8
     a34:	85 83       	std	Z+5, r24	; 0x05
     a36:	86 83       	std	Z+6, r24	; 0x06
     a38:	81 e0       	ldi	r24, 0x01	; 1
     a3a:	80 93 66 06 	sts	0x0666, r24	; 0x800666 <__TEXT_REGION_LENGTH__+0x700666>
     a3e:	e0 ea       	ldi	r30, 0xA0	; 160
     a40:	f9 e0       	ldi	r31, 0x09	; 9
     a42:	81 81       	ldd	r24, Z+1	; 0x01
     a44:	85 ff       	sbrs	r24, 5
     a46:	fd cf       	rjmp	.-6      	; 0xa42 <st7565r_init+0x9e>
     a48:	88 ec       	ldi	r24, 0xC8	; 200
     a4a:	80 93 a0 09 	sts	0x09A0, r24	; 0x8009a0 <__TEXT_REGION_LENGTH__+0x7009a0>
     a4e:	e0 ea       	ldi	r30, 0xA0	; 160
     a50:	f9 e0       	ldi	r31, 0x09	; 9
     a52:	81 81       	ldd	r24, Z+1	; 0x01
     a54:	86 ff       	sbrs	r24, 6
     a56:	fd cf       	rjmp	.-6      	; 0xa52 <st7565r_init+0xae>
     a58:	e0 ea       	ldi	r30, 0xA0	; 160
     a5a:	f9 e0       	ldi	r31, 0x09	; 9
     a5c:	81 81       	ldd	r24, Z+1	; 0x01
     a5e:	80 64       	ori	r24, 0x40	; 64
     a60:	81 83       	std	Z+1, r24	; 0x01
     a62:	80 81       	ld	r24, Z
     a64:	e0 ea       	ldi	r30, 0xA0	; 160
     a66:	f6 e0       	ldi	r31, 0x06	; 6
     a68:	88 e0       	ldi	r24, 0x08	; 8
     a6a:	85 83       	std	Z+5, r24	; 0x05
     a6c:	86 83       	std	Z+6, r24	; 0x06
     a6e:	81 e0       	ldi	r24, 0x01	; 1
     a70:	80 93 66 06 	sts	0x0666, r24	; 0x800666 <__TEXT_REGION_LENGTH__+0x700666>
     a74:	e0 ea       	ldi	r30, 0xA0	; 160
     a76:	f9 e0       	ldi	r31, 0x09	; 9
     a78:	81 81       	ldd	r24, Z+1	; 0x01
     a7a:	85 ff       	sbrs	r24, 5
     a7c:	fd cf       	rjmp	.-6      	; 0xa78 <st7565r_init+0xd4>
     a7e:	82 ea       	ldi	r24, 0xA2	; 162
     a80:	80 93 a0 09 	sts	0x09A0, r24	; 0x8009a0 <__TEXT_REGION_LENGTH__+0x7009a0>
     a84:	e0 ea       	ldi	r30, 0xA0	; 160
     a86:	f9 e0       	ldi	r31, 0x09	; 9
     a88:	81 81       	ldd	r24, Z+1	; 0x01
     a8a:	86 ff       	sbrs	r24, 6
     a8c:	fd cf       	rjmp	.-6      	; 0xa88 <st7565r_init+0xe4>
     a8e:	e0 ea       	ldi	r30, 0xA0	; 160
     a90:	f9 e0       	ldi	r31, 0x09	; 9
     a92:	81 81       	ldd	r24, Z+1	; 0x01
     a94:	80 64       	ori	r24, 0x40	; 64
     a96:	81 83       	std	Z+1, r24	; 0x01
     a98:	80 81       	ld	r24, Z
     a9a:	e0 ea       	ldi	r30, 0xA0	; 160
     a9c:	f6 e0       	ldi	r31, 0x06	; 6
     a9e:	88 e0       	ldi	r24, 0x08	; 8
     aa0:	85 83       	std	Z+5, r24	; 0x05
     aa2:	86 83       	std	Z+6, r24	; 0x06
     aa4:	81 e0       	ldi	r24, 0x01	; 1
     aa6:	80 93 66 06 	sts	0x0666, r24	; 0x800666 <__TEXT_REGION_LENGTH__+0x700666>
     aaa:	e0 ea       	ldi	r30, 0xA0	; 160
     aac:	f9 e0       	ldi	r31, 0x09	; 9
     aae:	81 81       	ldd	r24, Z+1	; 0x01
     ab0:	85 ff       	sbrs	r24, 5
     ab2:	fd cf       	rjmp	.-6      	; 0xaae <st7565r_init+0x10a>
     ab4:	8f e2       	ldi	r24, 0x2F	; 47
     ab6:	80 93 a0 09 	sts	0x09A0, r24	; 0x8009a0 <__TEXT_REGION_LENGTH__+0x7009a0>
     aba:	e0 ea       	ldi	r30, 0xA0	; 160
     abc:	f9 e0       	ldi	r31, 0x09	; 9
     abe:	81 81       	ldd	r24, Z+1	; 0x01
     ac0:	86 ff       	sbrs	r24, 6
     ac2:	fd cf       	rjmp	.-6      	; 0xabe <st7565r_init+0x11a>
     ac4:	e0 ea       	ldi	r30, 0xA0	; 160
     ac6:	f9 e0       	ldi	r31, 0x09	; 9
     ac8:	81 81       	ldd	r24, Z+1	; 0x01
     aca:	80 64       	ori	r24, 0x40	; 64
     acc:	81 83       	std	Z+1, r24	; 0x01
     ace:	80 81       	ld	r24, Z
     ad0:	e0 ea       	ldi	r30, 0xA0	; 160
     ad2:	f6 e0       	ldi	r31, 0x06	; 6
     ad4:	88 e0       	ldi	r24, 0x08	; 8
     ad6:	85 83       	std	Z+5, r24	; 0x05
     ad8:	86 83       	std	Z+6, r24	; 0x06
     ada:	81 e0       	ldi	r24, 0x01	; 1
     adc:	80 93 66 06 	sts	0x0666, r24	; 0x800666 <__TEXT_REGION_LENGTH__+0x700666>
     ae0:	e0 ea       	ldi	r30, 0xA0	; 160
     ae2:	f9 e0       	ldi	r31, 0x09	; 9
     ae4:	81 81       	ldd	r24, Z+1	; 0x01
     ae6:	85 ff       	sbrs	r24, 5
     ae8:	fd cf       	rjmp	.-6      	; 0xae4 <st7565r_init+0x140>
     aea:	88 ef       	ldi	r24, 0xF8	; 248
     aec:	80 93 a0 09 	sts	0x09A0, r24	; 0x8009a0 <__TEXT_REGION_LENGTH__+0x7009a0>
     af0:	e0 ea       	ldi	r30, 0xA0	; 160
     af2:	f9 e0       	ldi	r31, 0x09	; 9
     af4:	81 81       	ldd	r24, Z+1	; 0x01
     af6:	86 ff       	sbrs	r24, 6
     af8:	fd cf       	rjmp	.-6      	; 0xaf4 <st7565r_init+0x150>
     afa:	e0 ea       	ldi	r30, 0xA0	; 160
     afc:	f9 e0       	ldi	r31, 0x09	; 9
     afe:	81 81       	ldd	r24, Z+1	; 0x01
     b00:	80 64       	ori	r24, 0x40	; 64
     b02:	81 83       	std	Z+1, r24	; 0x01
     b04:	80 81       	ld	r24, Z
     b06:	e0 ea       	ldi	r30, 0xA0	; 160
     b08:	f6 e0       	ldi	r31, 0x06	; 6
     b0a:	88 e0       	ldi	r24, 0x08	; 8
     b0c:	85 83       	std	Z+5, r24	; 0x05
     b0e:	86 83       	std	Z+6, r24	; 0x06
     b10:	81 e0       	ldi	r24, 0x01	; 1
     b12:	80 93 66 06 	sts	0x0666, r24	; 0x800666 <__TEXT_REGION_LENGTH__+0x700666>
     b16:	e0 ea       	ldi	r30, 0xA0	; 160
     b18:	f9 e0       	ldi	r31, 0x09	; 9
     b1a:	81 81       	ldd	r24, Z+1	; 0x01
     b1c:	85 ff       	sbrs	r24, 5
     b1e:	fd cf       	rjmp	.-6      	; 0xb1a <st7565r_init+0x176>
     b20:	10 92 a0 09 	sts	0x09A0, r1	; 0x8009a0 <__TEXT_REGION_LENGTH__+0x7009a0>
     b24:	e0 ea       	ldi	r30, 0xA0	; 160
     b26:	f9 e0       	ldi	r31, 0x09	; 9
     b28:	81 81       	ldd	r24, Z+1	; 0x01
     b2a:	86 ff       	sbrs	r24, 6
     b2c:	fd cf       	rjmp	.-6      	; 0xb28 <st7565r_init+0x184>
     b2e:	e0 ea       	ldi	r30, 0xA0	; 160
     b30:	f9 e0       	ldi	r31, 0x09	; 9
     b32:	81 81       	ldd	r24, Z+1	; 0x01
     b34:	80 64       	ori	r24, 0x40	; 64
     b36:	81 83       	std	Z+1, r24	; 0x01
     b38:	80 81       	ld	r24, Z
     b3a:	e0 ea       	ldi	r30, 0xA0	; 160
     b3c:	f6 e0       	ldi	r31, 0x06	; 6
     b3e:	88 e0       	ldi	r24, 0x08	; 8
     b40:	85 83       	std	Z+5, r24	; 0x05
     b42:	86 83       	std	Z+6, r24	; 0x06
     b44:	81 e0       	ldi	r24, 0x01	; 1
     b46:	80 93 66 06 	sts	0x0666, r24	; 0x800666 <__TEXT_REGION_LENGTH__+0x700666>
     b4a:	e0 ea       	ldi	r30, 0xA0	; 160
     b4c:	f9 e0       	ldi	r31, 0x09	; 9
     b4e:	81 81       	ldd	r24, Z+1	; 0x01
     b50:	85 ff       	sbrs	r24, 5
     b52:	fd cf       	rjmp	.-6      	; 0xb4e <st7565r_init+0x1aa>
     b54:	81 e2       	ldi	r24, 0x21	; 33
     b56:	80 93 a0 09 	sts	0x09A0, r24	; 0x8009a0 <__TEXT_REGION_LENGTH__+0x7009a0>
     b5a:	e0 ea       	ldi	r30, 0xA0	; 160
     b5c:	f9 e0       	ldi	r31, 0x09	; 9
     b5e:	81 81       	ldd	r24, Z+1	; 0x01
     b60:	86 ff       	sbrs	r24, 6
     b62:	fd cf       	rjmp	.-6      	; 0xb5e <st7565r_init+0x1ba>
     b64:	e0 ea       	ldi	r30, 0xA0	; 160
     b66:	f9 e0       	ldi	r31, 0x09	; 9
     b68:	81 81       	ldd	r24, Z+1	; 0x01
     b6a:	80 64       	ori	r24, 0x40	; 64
     b6c:	81 83       	std	Z+1, r24	; 0x01
     b6e:	80 81       	ld	r24, Z
     b70:	c0 ea       	ldi	r28, 0xA0	; 160
     b72:	d6 e0       	ldi	r29, 0x06	; 6
     b74:	18 e0       	ldi	r17, 0x08	; 8
     b76:	1d 83       	std	Y+5, r17	; 0x05
     b78:	8e e1       	ldi	r24, 0x1E	; 30
     b7a:	0e 94 92 04 	call	0x924	; 0x924 <st7565r_set_contrast>
     b7e:	1e 83       	std	Y+6, r17	; 0x06
     b80:	81 e0       	ldi	r24, 0x01	; 1
     b82:	80 93 66 06 	sts	0x0666, r24	; 0x800666 <__TEXT_REGION_LENGTH__+0x700666>
     b86:	e0 ea       	ldi	r30, 0xA0	; 160
     b88:	f9 e0       	ldi	r31, 0x09	; 9
     b8a:	81 81       	ldd	r24, Z+1	; 0x01
     b8c:	85 ff       	sbrs	r24, 5
     b8e:	fd cf       	rjmp	.-6      	; 0xb8a <st7565r_init+0x1e6>
     b90:	8f ea       	ldi	r24, 0xAF	; 175
     b92:	80 93 a0 09 	sts	0x09A0, r24	; 0x8009a0 <__TEXT_REGION_LENGTH__+0x7009a0>
     b96:	e0 ea       	ldi	r30, 0xA0	; 160
     b98:	f9 e0       	ldi	r31, 0x09	; 9
     b9a:	81 81       	ldd	r24, Z+1	; 0x01
     b9c:	86 ff       	sbrs	r24, 6
     b9e:	fd cf       	rjmp	.-6      	; 0xb9a <st7565r_init+0x1f6>
     ba0:	e0 ea       	ldi	r30, 0xA0	; 160
     ba2:	f9 e0       	ldi	r31, 0x09	; 9
     ba4:	81 81       	ldd	r24, Z+1	; 0x01
     ba6:	80 64       	ori	r24, 0x40	; 64
     ba8:	81 83       	std	Z+1, r24	; 0x01
     baa:	80 81       	ld	r24, Z
     bac:	e0 ea       	ldi	r30, 0xA0	; 160
     bae:	f6 e0       	ldi	r31, 0x06	; 6
     bb0:	88 e0       	ldi	r24, 0x08	; 8
     bb2:	85 83       	std	Z+5, r24	; 0x05
     bb4:	86 83       	std	Z+6, r24	; 0x06
     bb6:	81 e0       	ldi	r24, 0x01	; 1
     bb8:	80 93 66 06 	sts	0x0666, r24	; 0x800666 <__TEXT_REGION_LENGTH__+0x700666>
     bbc:	e0 ea       	ldi	r30, 0xA0	; 160
     bbe:	f9 e0       	ldi	r31, 0x09	; 9
     bc0:	81 81       	ldd	r24, Z+1	; 0x01
     bc2:	85 ff       	sbrs	r24, 5
     bc4:	fd cf       	rjmp	.-6      	; 0xbc0 <st7565r_init+0x21c>
     bc6:	80 e4       	ldi	r24, 0x40	; 64
     bc8:	80 93 a0 09 	sts	0x09A0, r24	; 0x8009a0 <__TEXT_REGION_LENGTH__+0x7009a0>
     bcc:	e0 ea       	ldi	r30, 0xA0	; 160
     bce:	f9 e0       	ldi	r31, 0x09	; 9
     bd0:	81 81       	ldd	r24, Z+1	; 0x01
     bd2:	86 ff       	sbrs	r24, 6
     bd4:	fd cf       	rjmp	.-6      	; 0xbd0 <st7565r_init+0x22c>
     bd6:	e0 ea       	ldi	r30, 0xA0	; 160
     bd8:	f9 e0       	ldi	r31, 0x09	; 9
     bda:	81 81       	ldd	r24, Z+1	; 0x01
     bdc:	80 64       	ori	r24, 0x40	; 64
     bde:	81 83       	std	Z+1, r24	; 0x01
     be0:	80 81       	ld	r24, Z
     be2:	88 e0       	ldi	r24, 0x08	; 8
     be4:	80 93 a5 06 	sts	0x06A5, r24	; 0x8006a5 <__TEXT_REGION_LENGTH__+0x7006a5>
     be8:	df 91       	pop	r29
     bea:	cf 91       	pop	r28
     bec:	1f 91       	pop	r17
     bee:	08 95       	ret

00000bf0 <st7565r_put_framebuffer>:
     bf0:	6f 92       	push	r6
     bf2:	7f 92       	push	r7
     bf4:	8f 92       	push	r8
     bf6:	9f 92       	push	r9
     bf8:	af 92       	push	r10
     bfa:	bf 92       	push	r11
     bfc:	cf 92       	push	r12
     bfe:	df 92       	push	r13
     c00:	ef 92       	push	r14
     c02:	ff 92       	push	r15
     c04:	0f 93       	push	r16
     c06:	1f 93       	push	r17
     c08:	cf 93       	push	r28
     c0a:	df 93       	push	r29
     c0c:	b8 2e       	mov	r11, r24
     c0e:	a6 2e       	mov	r10, r22
     c10:	68 17       	cp	r22, r24
     c12:	08 f4       	brcc	.+2      	; 0xc16 <st7565r_put_framebuffer+0x26>
     c14:	86 c0       	rjmp	.+268    	; 0xd22 <st7565r_put_framebuffer+0x132>
     c16:	84 2f       	mov	r24, r20
     c18:	8f 77       	andi	r24, 0x7F	; 127
     c1a:	82 95       	swap	r24
     c1c:	8f 70       	andi	r24, 0x0F	; 15
     c1e:	80 61       	ori	r24, 0x10	; 16
     c20:	88 2e       	mov	r8, r24
     c22:	a0 ea       	ldi	r26, 0xA0	; 160
     c24:	b6 e0       	ldi	r27, 0x06	; 6
     c26:	88 e0       	ldi	r24, 0x08	; 8
     c28:	0f 2e       	mov	r0, r31
     c2a:	f0 e6       	ldi	r31, 0x60	; 96
     c2c:	6f 2e       	mov	r6, r31
     c2e:	f6 e0       	ldi	r31, 0x06	; 6
     c30:	7f 2e       	mov	r7, r31
     c32:	f0 2d       	mov	r31, r0
     c34:	dd 24       	eor	r13, r13
     c36:	d3 94       	inc	r13
     c38:	e0 ea       	ldi	r30, 0xA0	; 160
     c3a:	f9 e0       	ldi	r31, 0x09	; 9
     c3c:	94 2f       	mov	r25, r20
     c3e:	9f 70       	andi	r25, 0x0F	; 15
     c40:	99 2e       	mov	r9, r25
     c42:	04 2f       	mov	r16, r20
     c44:	10 e0       	ldi	r17, 0x00	; 0
     c46:	e2 2e       	mov	r14, r18
     c48:	f1 2c       	mov	r15, r1
     c4a:	2b 2d       	mov	r18, r11
     c4c:	2f 70       	andi	r18, 0x0F	; 15
     c4e:	20 6b       	ori	r18, 0xB0	; 176
     c50:	16 96       	adiw	r26, 0x06	; 6
     c52:	8c 93       	st	X, r24
     c54:	16 97       	sbiw	r26, 0x06	; 6
     c56:	e3 01       	movw	r28, r6
     c58:	de 82       	std	Y+6, r13	; 0x06
     c5a:	91 81       	ldd	r25, Z+1	; 0x01
     c5c:	95 ff       	sbrs	r25, 5
     c5e:	fd cf       	rjmp	.-6      	; 0xc5a <st7565r_put_framebuffer+0x6a>
     c60:	20 83       	st	Z, r18
     c62:	91 81       	ldd	r25, Z+1	; 0x01
     c64:	96 ff       	sbrs	r25, 6
     c66:	fd cf       	rjmp	.-6      	; 0xc62 <st7565r_put_framebuffer+0x72>
     c68:	91 81       	ldd	r25, Z+1	; 0x01
     c6a:	90 64       	ori	r25, 0x40	; 64
     c6c:	91 83       	std	Z+1, r25	; 0x01
     c6e:	90 81       	ld	r25, Z
     c70:	15 96       	adiw	r26, 0x05	; 5
     c72:	8c 93       	st	X, r24
     c74:	15 97       	sbiw	r26, 0x05	; 5
     c76:	16 96       	adiw	r26, 0x06	; 6
     c78:	8c 93       	st	X, r24
     c7a:	16 97       	sbiw	r26, 0x06	; 6
     c7c:	e3 01       	movw	r28, r6
     c7e:	de 82       	std	Y+6, r13	; 0x06
     c80:	91 81       	ldd	r25, Z+1	; 0x01
     c82:	95 ff       	sbrs	r25, 5
     c84:	fd cf       	rjmp	.-6      	; 0xc80 <st7565r_put_framebuffer+0x90>
     c86:	80 82       	st	Z, r8
     c88:	91 81       	ldd	r25, Z+1	; 0x01
     c8a:	96 ff       	sbrs	r25, 6
     c8c:	fd cf       	rjmp	.-6      	; 0xc88 <st7565r_put_framebuffer+0x98>
     c8e:	91 81       	ldd	r25, Z+1	; 0x01
     c90:	90 64       	ori	r25, 0x40	; 64
     c92:	91 83       	std	Z+1, r25	; 0x01
     c94:	90 81       	ld	r25, Z
     c96:	15 96       	adiw	r26, 0x05	; 5
     c98:	8c 93       	st	X, r24
     c9a:	15 97       	sbiw	r26, 0x05	; 5
     c9c:	16 96       	adiw	r26, 0x06	; 6
     c9e:	8c 93       	st	X, r24
     ca0:	16 97       	sbiw	r26, 0x06	; 6
     ca2:	e3 01       	movw	r28, r6
     ca4:	de 82       	std	Y+6, r13	; 0x06
     ca6:	91 81       	ldd	r25, Z+1	; 0x01
     ca8:	95 ff       	sbrs	r25, 5
     caa:	fd cf       	rjmp	.-6      	; 0xca6 <st7565r_put_framebuffer+0xb6>
     cac:	90 82       	st	Z, r9
     cae:	91 81       	ldd	r25, Z+1	; 0x01
     cb0:	96 ff       	sbrs	r25, 6
     cb2:	fd cf       	rjmp	.-6      	; 0xcae <st7565r_put_framebuffer+0xbe>
     cb4:	91 81       	ldd	r25, Z+1	; 0x01
     cb6:	90 64       	ori	r25, 0x40	; 64
     cb8:	91 83       	std	Z+1, r25	; 0x01
     cba:	90 81       	ld	r25, Z
     cbc:	15 96       	adiw	r26, 0x05	; 5
     cbe:	8c 93       	st	X, r24
     cc0:	15 97       	sbiw	r26, 0x05	; 5
     cc2:	98 01       	movw	r18, r16
     cc4:	d0 e8       	ldi	r29, 0x80	; 128
     cc6:	bd 9e       	mul	r11, r29
     cc8:	20 0d       	add	r18, r0
     cca:	31 1d       	adc	r19, r1
     ccc:	11 24       	eor	r1, r1
     cce:	b7 01       	movw	r22, r14
     cd0:	62 0f       	add	r22, r18
     cd2:	73 1f       	adc	r23, r19
     cd4:	62 17       	cp	r22, r18
     cd6:	73 07       	cpc	r23, r19
     cd8:	00 f1       	brcs	.+64     	; 0xd1a <st7565r_put_framebuffer+0x12a>
     cda:	a9 01       	movw	r20, r18
     cdc:	42 59       	subi	r20, 0x92	; 146
     cde:	50 4d       	sbci	r21, 0xD0	; 208
     ce0:	ea 01       	movw	r28, r20
     ce2:	c9 90       	ld	r12, Y+
     ce4:	ae 01       	movw	r20, r28
     ce6:	16 96       	adiw	r26, 0x06	; 6
     ce8:	8c 93       	st	X, r24
     cea:	16 97       	sbiw	r26, 0x06	; 6
     cec:	e3 01       	movw	r28, r6
     cee:	dd 82       	std	Y+5, r13	; 0x05
     cf0:	91 81       	ldd	r25, Z+1	; 0x01
     cf2:	95 ff       	sbrs	r25, 5
     cf4:	fd cf       	rjmp	.-6      	; 0xcf0 <st7565r_put_framebuffer+0x100>
     cf6:	c0 82       	st	Z, r12
     cf8:	91 81       	ldd	r25, Z+1	; 0x01
     cfa:	96 ff       	sbrs	r25, 6
     cfc:	fd cf       	rjmp	.-6      	; 0xcf8 <st7565r_put_framebuffer+0x108>
     cfe:	91 81       	ldd	r25, Z+1	; 0x01
     d00:	90 64       	ori	r25, 0x40	; 64
     d02:	91 83       	std	Z+1, r25	; 0x01
     d04:	90 81       	ld	r25, Z
     d06:	e3 01       	movw	r28, r6
     d08:	de 82       	std	Y+6, r13	; 0x06
     d0a:	15 96       	adiw	r26, 0x05	; 5
     d0c:	8c 93       	st	X, r24
     d0e:	15 97       	sbiw	r26, 0x05	; 5
     d10:	2f 5f       	subi	r18, 0xFF	; 255
     d12:	3f 4f       	sbci	r19, 0xFF	; 255
     d14:	62 17       	cp	r22, r18
     d16:	73 07       	cpc	r23, r19
     d18:	18 f7       	brcc	.-58     	; 0xce0 <st7565r_put_framebuffer+0xf0>
     d1a:	b3 94       	inc	r11
     d1c:	ab 14       	cp	r10, r11
     d1e:	08 f0       	brcs	.+2      	; 0xd22 <st7565r_put_framebuffer+0x132>
     d20:	94 cf       	rjmp	.-216    	; 0xc4a <st7565r_put_framebuffer+0x5a>
     d22:	df 91       	pop	r29
     d24:	cf 91       	pop	r28
     d26:	1f 91       	pop	r17
     d28:	0f 91       	pop	r16
     d2a:	ff 90       	pop	r15
     d2c:	ef 90       	pop	r14
     d2e:	df 90       	pop	r13
     d30:	cf 90       	pop	r12
     d32:	bf 90       	pop	r11
     d34:	af 90       	pop	r10
     d36:	9f 90       	pop	r9
     d38:	8f 90       	pop	r8
     d3a:	7f 90       	pop	r7
     d3c:	6f 90       	pop	r6
     d3e:	08 95       	ret

00000d40 <st7565r_read_column>:

//-----------------------------------------------------------------------------

uint32_t st7565r_read_column( uint8_t page0, uint8_t page1, uint8_t x )
{
     d40:	cf 92       	push	r12
     d42:	df 92       	push	r13
     d44:	ef 92       	push	r14
     d46:	ff 92       	push	r15
     d48:	96 2f       	mov	r25, r22
	uint16_t	byte_idx;
	uint8_t		shift_cnt;

	col_value = 0;
	shift_cnt = 0;
	byte_idx = (uint16_t)page0 * LCD_WIDTH + (uint16_t)x;
     d4a:	e4 2f       	mov	r30, r20
     d4c:	f0 e0       	ldi	r31, 0x00	; 0
     d4e:	20 e8       	ldi	r18, 0x80	; 128
     d50:	82 9f       	mul	r24, r18
     d52:	e0 0d       	add	r30, r0
     d54:	f1 1d       	adc	r31, r1
     d56:	11 24       	eor	r1, r1

	while( page0 <= page1 )
     d58:	68 17       	cp	r22, r24
     d5a:	f8 f0       	brcs	.+62     	; 0xd9a <st7565r_read_column+0x5a>
     d5c:	e2 59       	subi	r30, 0x92	; 146
     d5e:	f0 4d       	sbci	r31, 0xD0	; 208
     d60:	20 e0       	ldi	r18, 0x00	; 0
     d62:	30 e0       	ldi	r19, 0x00	; 0
     d64:	c1 2c       	mov	r12, r1
     d66:	d1 2c       	mov	r13, r1
     d68:	76 01       	movw	r14, r12
	{
		col_value |= (uint32_t)(st7565r_FrameBuffer[byte_idx]) << shift_cnt;
     d6a:	40 81       	ld	r20, Z
     d6c:	50 e0       	ldi	r21, 0x00	; 0
     d6e:	60 e0       	ldi	r22, 0x00	; 0
     d70:	70 e0       	ldi	r23, 0x00	; 0
     d72:	02 2e       	mov	r0, r18
     d74:	04 c0       	rjmp	.+8      	; 0xd7e <st7565r_read_column+0x3e>
     d76:	44 0f       	add	r20, r20
     d78:	55 1f       	adc	r21, r21
     d7a:	66 1f       	adc	r22, r22
     d7c:	77 1f       	adc	r23, r23
     d7e:	0a 94       	dec	r0
     d80:	d2 f7       	brpl	.-12     	; 0xd76 <st7565r_read_column+0x36>
     d82:	c4 2a       	or	r12, r20
     d84:	d5 2a       	or	r13, r21
     d86:	e6 2a       	or	r14, r22
     d88:	f7 2a       	or	r15, r23
		byte_idx += LCD_WIDTH;
		shift_cnt += 8;
		page0++;
     d8a:	8f 5f       	subi	r24, 0xFF	; 255
     d8c:	e0 58       	subi	r30, 0x80	; 128
     d8e:	ff 4f       	sbci	r31, 0xFF	; 255
     d90:	28 5f       	subi	r18, 0xF8	; 248
     d92:	3f 4f       	sbci	r19, 0xFF	; 255

	col_value = 0;
	shift_cnt = 0;
	byte_idx = (uint16_t)page0 * LCD_WIDTH + (uint16_t)x;

	while( page0 <= page1 )
     d94:	98 17       	cp	r25, r24
     d96:	48 f7       	brcc	.-46     	; 0xd6a <st7565r_read_column+0x2a>
     d98:	03 c0       	rjmp	.+6      	; 0xda0 <st7565r_read_column+0x60>
{
	uint32_t	col_value;
	uint16_t	byte_idx;
	uint8_t		shift_cnt;

	col_value = 0;
     d9a:	c1 2c       	mov	r12, r1
     d9c:	d1 2c       	mov	r13, r1
     d9e:	76 01       	movw	r14, r12
		shift_cnt += 8;
		page0++;
	}

	return col_value;
}
     da0:	c7 01       	movw	r24, r14
     da2:	b6 01       	movw	r22, r12
     da4:	ff 90       	pop	r15
     da6:	ef 90       	pop	r14
     da8:	df 90       	pop	r13
     daa:	cf 90       	pop	r12
     dac:	08 95       	ret

00000dae <st7565r_write_column>:

//-----------------------------------------------------------------------------

void st7565r_write_column( uint8_t page0, uint8_t page1, uint8_t x, uint32_t column )
{
     dae:	0f 93       	push	r16
     db0:	1f 93       	push	r17
	uint16_t	byte_idx;

	byte_idx = (uint16_t)page0 * LCD_WIDTH + (uint16_t)x;
     db2:	e4 2f       	mov	r30, r20
     db4:	f0 e0       	ldi	r31, 0x00	; 0
     db6:	90 e8       	ldi	r25, 0x80	; 128
     db8:	89 9f       	mul	r24, r25
     dba:	e0 0d       	add	r30, r0
     dbc:	f1 1d       	adc	r31, r1
     dbe:	11 24       	eor	r1, r1

	while( page0 <= page1 )
     dc0:	68 17       	cp	r22, r24
     dc2:	60 f0       	brcs	.+24     	; 0xddc <st7565r_write_column+0x2e>
     dc4:	e2 59       	subi	r30, 0x92	; 146
     dc6:	f0 4d       	sbci	r31, 0xD0	; 208
	{
		st7565r_FrameBuffer[byte_idx] = (uint8_t)(column & 0xFF);
     dc8:	00 83       	st	Z, r16
		byte_idx += LCD_WIDTH;
		column >>= 8;
     dca:	01 2f       	mov	r16, r17
     dcc:	12 2f       	mov	r17, r18
     dce:	23 2f       	mov	r18, r19
     dd0:	33 27       	eor	r19, r19
		page0++;
     dd2:	8f 5f       	subi	r24, 0xFF	; 255
     dd4:	e0 58       	subi	r30, 0x80	; 128
     dd6:	ff 4f       	sbci	r31, 0xFF	; 255
{
	uint16_t	byte_idx;

	byte_idx = (uint16_t)page0 * LCD_WIDTH + (uint16_t)x;

	while( page0 <= page1 )
     dd8:	68 17       	cp	r22, r24
     dda:	b0 f7       	brcc	.-20     	; 0xdc8 <st7565r_write_column+0x1a>
		st7565r_FrameBuffer[byte_idx] = (uint8_t)(column & 0xFF);
		byte_idx += LCD_WIDTH;
		column >>= 8;
		page0++;
	}
}
     ddc:	1f 91       	pop	r17
     dde:	0f 91       	pop	r16
     de0:	08 95       	ret

00000de2 <termostat.5239>:
	for( i = 0; i < 8; i++ )
	{
		txt[i] = ((x & 0x80) != 0 ) ? '1' : '0';
		x <<= 1;
	}
	txt[8] = '\0';
     de2:	2f 92       	push	r2
     de4:	3f 92       	push	r3
     de6:	80 91 48 06 	lds	r24, 0x0648	; 0x800648 <__TEXT_REGION_LENGTH__+0x700648>
     dea:	83 fd       	sbrc	r24, 3
     dec:	10 c0       	rjmp	.+32     	; 0xe0e <termostat.5239+0x2c>
     dee:	85 e0       	ldi	r24, 0x05	; 5
     df0:	ef e3       	ldi	r30, 0x3F	; 63
     df2:	fe e2       	ldi	r31, 0x2E	; 46
     df4:	d1 01       	movw	r26, r2
     df6:	01 90       	ld	r0, Z+
     df8:	0d 92       	st	X+, r0
     dfa:	8a 95       	dec	r24
     dfc:	e1 f7       	brne	.-8      	; 0xdf6 <termostat.5239+0x14>
     dfe:	64 e1       	ldi	r22, 0x14	; 20
     e00:	84 e6       	ldi	r24, 0x64	; 100
     e02:	0e 94 2c 03 	call	0x658	; 0x658 <lcd_st7565r_GotoTextXY>
     e06:	61 e0       	ldi	r22, 0x01	; 1
     e08:	c1 01       	movw	r24, r2
     e0a:	0e 94 58 04 	call	0x8b0	; 0x8b0 <lcd_st7565r_DrawText>
     e0e:	80 91 48 06 	lds	r24, 0x0648	; 0x800648 <__TEXT_REGION_LENGTH__+0x700648>
     e12:	83 ff       	sbrs	r24, 3
     e14:	11 c0       	rjmp	.+34     	; 0xe38 <termostat.5239+0x56>
     e16:	8f e4       	ldi	r24, 0x4F	; 79
     e18:	96 e4       	ldi	r25, 0x46	; 70
     e1a:	f1 01       	movw	r30, r2
     e1c:	80 83       	st	Z, r24
     e1e:	91 83       	std	Z+1, r25	; 0x01
     e20:	86 e4       	ldi	r24, 0x46	; 70
     e22:	90 e0       	ldi	r25, 0x00	; 0
     e24:	82 83       	std	Z+2, r24	; 0x02
     e26:	93 83       	std	Z+3, r25	; 0x03
     e28:	64 e1       	ldi	r22, 0x14	; 20
     e2a:	84 e6       	ldi	r24, 0x64	; 100
     e2c:	0e 94 2c 03 	call	0x658	; 0x658 <lcd_st7565r_GotoTextXY>
     e30:	61 e0       	ldi	r22, 0x01	; 1
     e32:	c1 01       	movw	r24, r2
     e34:	0e 94 58 04 	call	0x8b0	; 0x8b0 <lcd_st7565r_DrawText>
     e38:	3f 90       	pop	r3
     e3a:	2f 90       	pop	r2
     e3c:	08 95       	ret

00000e3e <error.5242>:
     e3e:	2f 92       	push	r2
     e40:	3f 92       	push	r3
     e42:	88 23       	and	r24, r24
     e44:	cc f5       	brge	.+114    	; 0xeb8 <error.5242+0x7a>
     e46:	8f 3f       	cpi	r24, 0xFF	; 255
     e48:	89 f4       	brne	.+34     	; 0xe6c <error.5242+0x2e>
     e4a:	85 e1       	ldi	r24, 0x15	; 21
     e4c:	e4 e4       	ldi	r30, 0x44	; 68
     e4e:	fe e2       	ldi	r31, 0x2E	; 46
     e50:	d1 01       	movw	r26, r2
     e52:	01 90       	ld	r0, Z+
     e54:	0d 92       	st	X+, r0
     e56:	8a 95       	dec	r24
     e58:	e1 f7       	brne	.-8      	; 0xe52 <error.5242+0x14>
     e5a:	64 e1       	ldi	r22, 0x14	; 20
     e5c:	80 e0       	ldi	r24, 0x00	; 0
     e5e:	0e 94 2c 03 	call	0x658	; 0x658 <lcd_st7565r_GotoTextXY>
     e62:	61 e0       	ldi	r22, 0x01	; 1
     e64:	c1 01       	movw	r24, r2
     e66:	0e 94 58 04 	call	0x8b0	; 0x8b0 <lcd_st7565r_DrawText>
     e6a:	36 c0       	rjmp	.+108    	; 0xed8 <error.5242+0x9a>
     e6c:	85 3f       	cpi	r24, 0xF5	; 245
     e6e:	89 f4       	brne	.+34     	; 0xe92 <error.5242+0x54>
     e70:	85 e1       	ldi	r24, 0x15	; 21
     e72:	e9 e5       	ldi	r30, 0x59	; 89
     e74:	fe e2       	ldi	r31, 0x2E	; 46
     e76:	d1 01       	movw	r26, r2
     e78:	01 90       	ld	r0, Z+
     e7a:	0d 92       	st	X+, r0
     e7c:	8a 95       	dec	r24
     e7e:	e1 f7       	brne	.-8      	; 0xe78 <error.5242+0x3a>
     e80:	64 e1       	ldi	r22, 0x14	; 20
     e82:	80 e0       	ldi	r24, 0x00	; 0
     e84:	0e 94 2c 03 	call	0x658	; 0x658 <lcd_st7565r_GotoTextXY>
     e88:	61 e0       	ldi	r22, 0x01	; 1
     e8a:	c1 01       	movw	r24, r2
     e8c:	0e 94 58 04 	call	0x8b0	; 0x8b0 <lcd_st7565r_DrawText>
     e90:	23 c0       	rjmp	.+70     	; 0xed8 <error.5242+0x9a>
     e92:	84 3f       	cpi	r24, 0xF4	; 244
     e94:	09 f5       	brne	.+66     	; 0xed8 <error.5242+0x9a>
     e96:	85 e1       	ldi	r24, 0x15	; 21
     e98:	ee e6       	ldi	r30, 0x6E	; 110
     e9a:	fe e2       	ldi	r31, 0x2E	; 46
     e9c:	d1 01       	movw	r26, r2
     e9e:	01 90       	ld	r0, Z+
     ea0:	0d 92       	st	X+, r0
     ea2:	8a 95       	dec	r24
     ea4:	e1 f7       	brne	.-8      	; 0xe9e <error.5242+0x60>
     ea6:	64 e1       	ldi	r22, 0x14	; 20
     ea8:	80 e0       	ldi	r24, 0x00	; 0
     eaa:	0e 94 2c 03 	call	0x658	; 0x658 <lcd_st7565r_GotoTextXY>
     eae:	61 e0       	ldi	r22, 0x01	; 1
     eb0:	c1 01       	movw	r24, r2
     eb2:	0e 94 58 04 	call	0x8b0	; 0x8b0 <lcd_st7565r_DrawText>
     eb6:	10 c0       	rjmp	.+32     	; 0xed8 <error.5242+0x9a>
     eb8:	88 e0       	ldi	r24, 0x08	; 8
     eba:	ef e3       	ldi	r30, 0x3F	; 63
     ebc:	ff e2       	ldi	r31, 0x2F	; 47
     ebe:	d1 01       	movw	r26, r2
     ec0:	01 90       	ld	r0, Z+
     ec2:	0d 92       	st	X+, r0
     ec4:	8a 95       	dec	r24
     ec6:	e1 f7       	brne	.-8      	; 0xec0 <error.5242+0x82>
     ec8:	64 e1       	ldi	r22, 0x14	; 20
     eca:	80 e0       	ldi	r24, 0x00	; 0
     ecc:	0e 94 2c 03 	call	0x658	; 0x658 <lcd_st7565r_GotoTextXY>
     ed0:	61 e0       	ldi	r22, 0x01	; 1
     ed2:	c1 01       	movw	r24, r2
     ed4:	0e 94 58 04 	call	0x8b0	; 0x8b0 <lcd_st7565r_DrawText>
     ed8:	3f 90       	pop	r3
     eda:	2f 90       	pop	r2
     edc:	08 95       	ret

00000ede <main>:
}
//=============================================================================
//=============================================================================

int main(void)
{
     ede:	cf 93       	push	r28
     ee0:	df 93       	push	r29
     ee2:	cd b7       	in	r28, 0x3d	; 61
     ee4:	de b7       	in	r29, 0x3e	; 62
     ee6:	a2 97       	sbiw	r28, 0x22	; 34
     ee8:	cd bf       	out	0x3d, r28	; 61
     eea:	de bf       	out	0x3e, r29	; 62
	uint16_t		But0, But1, But2,But3,  ButREdge;
	uint8_t			cmd, buf[2];
	int16_t			temp;

//------------------------------------------
	sei();
     eec:	78 94       	sei

//=============================================================================

static inline void OSC_Enable( uint8_t oscMask )
{
	OSC.CTRL |= oscMask;
     eee:	e0 e5       	ldi	r30, 0x50	; 80
     ef0:	f0 e0       	ldi	r31, 0x00	; 0
     ef2:	80 81       	ld	r24, Z
     ef4:	82 60       	ori	r24, 0x02	; 2
     ef6:	80 83       	st	Z, r24
}
//----------------------------------------------------------------------------

static inline uint8_t OSC_Ready( uint8_t oscMask )
{
	return (OSC.STATUS & oscMask);
     ef8:	81 81       	ldd	r24, Z+1	; 0x01
#endif

#ifdef OSC_RC32M_SELECT

	OSC_Enable( OSC_RC32MEN_bm );							// Enable 32 MHz RC oscillator
	while( OSC_Ready( OSC_RC32MRDY_bm ) == 0 );
     efa:	81 ff       	sbrs	r24, 1
     efc:	fd cf       	rjmp	.-6      	; 0xef8 <main+0x1a>

	CLK_PerClkCfg( CLK_PSADIV_2_gc, CLK_PSBCDIV_1_1_gc );	// CPU, PER, PER2, PER4 clock = 16 MHz
     efe:	60 e0       	ldi	r22, 0x00	; 0
     f00:	84 e0       	ldi	r24, 0x04	; 4
     f02:	0e 94 3e 0d 	call	0x1a7c	; 0x1a7c <CLK_PerClkCfg>
	CLK_SysClkSel( CLK_SCLKSEL_RC32M_gc );
     f06:	81 e0       	ldi	r24, 0x01	; 1
     f08:	0e 94 38 0d 	call	0x1a70	; 0x1a70 <CLK_SysClkSel>
	DFLL_RC32M_RefClkSel( OSC_RC32MCREF_RC32K_gc );			// Select 32 kHz internal clock as DFLL reference
	DFLL_Enable( &DFLLRC32M );								// Enable DFLL

#elif defined(DFLL_TOSC32K_ENABLE)

	OSC_TOSC32K_Start( );
     f0c:	0e 94 4d 0d 	call	0x1a9a	; 0x1a9a <OSC_TOSC32K_Start>
}
//----------------------------------------------------------------------------

static inline void OSC_XOsc_TOSC32K_Sel( uint8_t lowPowerMode )
{
	OSC.XOSCCTRL = OSC_XOSCSEL_32KHz_gc | ((lowPowerMode != 0) ? OSC_X32KLPM_bm : 0);
     f10:	e0 e5       	ldi	r30, 0x50	; 80
     f12:	f0 e0       	ldi	r31, 0x00	; 0
     f14:	82 e0       	ldi	r24, 0x02	; 2
     f16:	82 83       	std	Z+2, r24	; 0x02

//=============================================================================

static inline void OSC_Enable( uint8_t oscMask )
{
	OSC.CTRL |= oscMask;
     f18:	80 81       	ld	r24, Z
     f1a:	88 60       	ori	r24, 0x08	; 8
     f1c:	80 83       	st	Z, r24
}
//----------------------------------------------------------------------------

static inline uint8_t OSC_Ready( uint8_t oscMask )
{
	return (OSC.STATUS & oscMask);
     f1e:	81 81       	ldd	r24, Z+1	; 0x01

	OSC_XOsc_TOSC32K_Sel( 0 );								// Select 32 kHz TOSC as external clock
	OSC_Enable( OSC_XOSCEN_bm );							// Enable external oscillator
	while( OSC_Ready( OSC_XOSCRDY_bm ) == 0 );
     f20:	83 ff       	sbrs	r24, 3
     f22:	fd cf       	rjmp	.-6      	; 0xf1e <main+0x40>

	DFLL_Cfg( &DFLLRC32M, DFLLRC32M_RATIO );				// Load DFLL ratio
     f24:	62 e1       	ldi	r22, 0x12	; 18
     f26:	7a e7       	ldi	r23, 0x7A	; 122
     f28:	80 e6       	ldi	r24, 0x60	; 96
     f2a:	90 e0       	ldi	r25, 0x00	; 0
     f2c:	0e 94 66 0d 	call	0x1acc	; 0x1acc <DFLL_Cfg>
	DFLL_RC32M_RefClkSel( OSC_RC32MCREF_XOSC32K_gc );		// Select 32 kHz external clock as DFLL reference
     f30:	82 e0       	ldi	r24, 0x02	; 2
     f32:	0e 94 46 0d 	call	0x1a8c	; 0x1a8c <DFLL_RC32M_RefClkSel>

//----------------------------------------------------------------------------

static inline void DFLL_Enable( DFLL_t *pDfll )
{
	pDfll->CTRL = DFLL_ENABLE_bm;
     f36:	ff 24       	eor	r15, r15
     f38:	f3 94       	inc	r15
     f3a:	f0 92 60 00 	sts	0x0060, r15	; 0x800060 <__TEXT_REGION_LENGTH__+0x700060>
}
//----------------------------------------------------------------------------

static inline void OSC_Disable( uint8_t oscMask )
{
	OSC.CTRL &= (~oscMask);
     f3e:	e0 e5       	ldi	r30, 0x50	; 80
     f40:	f0 e0       	ldi	r31, 0x00	; 0
     f42:	80 81       	ld	r24, Z
     f44:	8e 7f       	andi	r24, 0xFE	; 254
     f46:	80 83       	st	Z, r24

//--------------------------------------------------------------

// Konfiguracja moduu KAmodCOMBO

	STLED316_Initialize( );
     f48:	0e 94 f6 01 	call	0x3ec	; 0x3ec <STLED316_Initialize>
//	STLED316_InitializeInt( 0 );
	STLED316_DisplayOn( );
     f4c:	0e 94 21 01 	call	0x242	; 0x242 <STLED316_DisplayOn>

	STLED316_SetBrghtCtrlModeAndDigitCnt(STLED316_BRGHT_MODE_VAR, 0, 6);
     f50:	46 e0       	ldi	r20, 0x06	; 6
     f52:	60 e0       	ldi	r22, 0x00	; 0
     f54:	80 e0       	ldi	r24, 0x00	; 0
     f56:	0e 94 31 01 	call	0x262	; 0x262 <STLED316_SetBrghtCtrlModeAndDigitCnt>

	STLED316_7Seg_SetBrght( 4 );
     f5a:	84 e0       	ldi	r24, 0x04	; 4
     f5c:	0e 94 da 01 	call	0x3b4	; 0x3b4 <STLED316_7Seg_SetBrght>
	STLED316_LEDs_SetBrght( 2 );
     f60:	82 e0       	ldi	r24, 0x02	; 2
     f62:	0e 94 bc 01 	call	0x378	; 0x378 <STLED316_LEDs_SetBrght>
	STLED316_7Seg_WriteTxt( 5, "      " );
     f66:	60 e4       	ldi	r22, 0x40	; 64
     f68:	7f e2       	ldi	r23, 0x2F	; 47
     f6a:	85 e0       	ldi	r24, 0x05	; 5
     f6c:	0e 94 62 01 	call	0x2c4	; 0x2c4 <STLED316_7Seg_WriteTxt>

//-----------------------------------------------------------------------------

static inline void LCD_Backlight_CfgPin( void )
{
	GPIO_CfgPins( &LCD_BACKLIGHT_PORT, LCD_BACKLIGHT_PIN, PORT_OPC_TOTEM_gc, 1, 0, 0 );
     f70:	e1 2c       	mov	r14, r1
     f72:	00 e0       	ldi	r16, 0x00	; 0
     f74:	21 e0       	ldi	r18, 0x01	; 1
     f76:	40 e0       	ldi	r20, 0x00	; 0
     f78:	60 e1       	ldi	r22, 0x10	; 16
     f7a:	80 e8       	ldi	r24, 0x80	; 128
     f7c:	96 e0       	ldi	r25, 0x06	; 6
     f7e:	0e 94 24 0d 	call	0x1a48	; 0x1a48 <GPIO_CfgPins>
}
//-----------------------------------------------------------------------------

static inline void GPIO_SetPinsHigh( PORT_t *pPort, uint8_t pinMask )
{
	pPort->OUTSET = pinMask;
     f82:	80 e1       	ldi	r24, 0x10	; 16
     f84:	80 93 85 06 	sts	0x0685, r24	; 0x800685 <__TEXT_REGION_LENGTH__+0x700685>
// Konfiguracja podwietlenia i wywietlacza LCD

	LCD_Backlight_CfgPin( );
//	LCD_Backlight_CfgPWM( );
	LCD_Backlight_On( );
	lcd_st7565r_InitInterface( );
     f88:	0e 94 9c 02 	call	0x538	; 0x538 <lcd_st7565r_InitInterface>
	lcd_st7565r_InitCtrl( );
     f8c:	0e 94 07 03 	call	0x60e	; 0x60e <lcd_st7565r_InitCtrl>
	lcd_st7565r_ClrScr( LCD_PIXEL_CLR );
     f90:	80 e0       	ldi	r24, 0x00	; 0
     f92:	0e 94 e7 02 	call	0x5ce	; 0x5ce <lcd_st7565r_ClrScr>

//=============================================================================

static inline uint8_t lcd_st7565r_SetContrast( uint8_t contrast )
{
	return st7565r_set_contrast( contrast );
     f96:	8e e1       	ldi	r24, 0x1E	; 30
     f98:	0e 94 92 04 	call	0x924	; 0x924 <st7565r_set_contrast>
	lcd_st7565r_SetContrast( ST7565R_DISPLAY_CONTRAST_MIN );
	lcd_st7565r_SelectFont( lcd_st7565r_font_medium );
     f9c:	81 e0       	ldi	r24, 0x01	; 1
     f9e:	0e 94 0c 03 	call	0x618	; 0x618 <lcd_st7565r_SelectFont>
	lcd_st7565r_GotoTextXY( 0, 0 );
     fa2:	60 e0       	ldi	r22, 0x00	; 0
     fa4:	80 e0       	ldi	r24, 0x00	; 0
     fa6:	0e 94 2c 03 	call	0x658	; 0x658 <lcd_st7565r_GotoTextXY>

//--------------------------------------------------------------
	
	PIT_Cfg( TC_CLKSEL_DIV8_gc, 40000,	5 );			// TCF0 Clk = 2 MHz, OVF Int period - 20 ms, Loop period - 5*20 ms
     faa:	45 e0       	ldi	r20, 0x05	; 5
     fac:	60 e4       	ldi	r22, 0x40	; 64
     fae:	7c e9       	ldi	r23, 0x9C	; 156
     fb0:	84 e0       	ldi	r24, 0x04	; 4
     fb2:	0e 94 6a 0d 	call	0x1ad4	; 0x1ad4 <PIT_Cfg>
	PIT_Start( );
     fb6:	0e 94 86 0d 	call	0x1b0c	; 0x1b0c <PIT_Start>

//--------------------------------------------------------------

// Konfiguracja portw do odczytu przecznikw i przyciskw na pytce A3BU-PCB1

	GPIO_CfgPins( &PCB1_SW_BUT_PORT_LO, PCB1_SW_BUT_PIN_LO, (PORT_OPC_TOTEM_gc | PORT_ISC_BOTHEDGES_gc), 0, 0, PORT_INVEN_bm );
     fba:	68 94       	set
     fbc:	ee 24       	eor	r14, r14
     fbe:	e6 f8       	bld	r14, 6
     fc0:	20 e0       	ldi	r18, 0x00	; 0
     fc2:	40 e0       	ldi	r20, 0x00	; 0
     fc4:	6f e0       	ldi	r22, 0x0F	; 15
     fc6:	80 e2       	ldi	r24, 0x20	; 32
     fc8:	96 e0       	ldi	r25, 0x06	; 6
     fca:	0e 94 24 0d 	call	0x1a48	; 0x1a48 <GPIO_CfgPins>
	GPIO_CfgPins( &PCB1_SW_BUT_PORT_HI, PCB1_SW_BUT_PIN_HI, (PORT_OPC_TOTEM_gc | PORT_ISC_BOTHEDGES_gc), 0, 0, PORT_INVEN_bm );
     fce:	20 e0       	ldi	r18, 0x00	; 0
     fd0:	40 e0       	ldi	r20, 0x00	; 0
     fd2:	60 ef       	ldi	r22, 0xF0	; 240
     fd4:	80 e0       	ldi	r24, 0x00	; 0
     fd6:	96 e0       	ldi	r25, 0x06	; 6
     fd8:	0e 94 24 0d 	call	0x1a48	; 0x1a48 <GPIO_CfgPins>

//--------------------------------------------------------------

// Konfiguracja wyjcia TWI 
	
	TWI_CfgPins( &PORTC, (GPIO_PIN_0 | GPIO_PIN_1), true );
     fdc:	41 e0       	ldi	r20, 0x01	; 1
     fde:	63 e0       	ldi	r22, 0x03	; 3
     fe0:	80 e4       	ldi	r24, 0x40	; 64
     fe2:	96 e0       	ldi	r25, 0x06	; 6
     fe4:	0e 94 b3 0d 	call	0x1b66	; 0x1b66 <TWI_CfgPins>
	TWI_SetBaudRate( &TWIC, 100000, F_CPU );
     fe8:	00 e0       	ldi	r16, 0x00	; 0
     fea:	14 e2       	ldi	r17, 0x24	; 36
     fec:	24 ef       	ldi	r18, 0xF4	; 244
     fee:	30 e0       	ldi	r19, 0x00	; 0
     ff0:	40 ea       	ldi	r20, 0xA0	; 160
     ff2:	56 e8       	ldi	r21, 0x86	; 134
     ff4:	61 e0       	ldi	r22, 0x01	; 1
     ff6:	70 e0       	ldi	r23, 0x00	; 0
     ff8:	80 e8       	ldi	r24, 0x80	; 128
     ffa:	94 e0       	ldi	r25, 0x04	; 4
     ffc:	0e 94 c1 0d 	call	0x1b82	; 0x1b82 <TWI_SetBaudRate>

//===========================================================================

static inline void TWIM_Enable( TWI_t *pTWI )
{
	pTWI->MASTER.CTRLA |= TWI_MASTER_ENABLE_bm;
    1000:	e0 e8       	ldi	r30, 0x80	; 128
    1002:	f4 e0       	ldi	r31, 0x04	; 4
    1004:	81 81       	ldd	r24, Z+1	; 0x01
    1006:	88 60       	ori	r24, 0x08	; 8
    1008:	81 83       	std	Z+1, r24	; 0x01
}
//----------------------------------------------------------------------------

static inline void TWIM_SetIdleBusState( TWI_t *pTWI )
{
	pTWI->MASTER.STATUS = TWI_MASTER_BUSSTATE_IDLE_gc;
    100a:	f4 82       	std	Z+4, r15	; 0x04

//--------------------------------------------------------------

// Inicjowanie zmiennych

	But0 = STLED316_Buts_Read( );
    100c:	0e 94 a8 01 	call	0x350	; 0x350 <STLED316_Buts_Read>
    1010:	2c 01       	movw	r4, r24
	But1 = But0;
	But2 = But0;
	But3 = But0;
    1012:	8c 8f       	std	Y+28, r24	; 0x1c
    1014:	9d 8f       	std	Y+29, r25	; 0x1d

// Inicjowanie zmiennych

	But0 = STLED316_Buts_Read( );
	But1 = But0;
	But2 = But0;
    1016:	89 a3       	std	Y+33, r24	; 0x21
    1018:	9a a3       	std	Y+34, r25	; 0x22
	int a=0;
	int16_t Thz;
	int16_t Tlz;
	int nz=0,inf=1;
	char txt1[16];
	int8_t m=0; // zmienna do licznika menu
    101a:	19 8e       	std	Y+25, r1	; 0x19
	But2 = But0;
	But3 = But0;
	int a=0;
	int16_t Thz;
	int16_t Tlz;
	int nz=0,inf=1;
    101c:	66 24       	eor	r6, r6
    101e:	63 94       	inc	r6
    1020:	71 2c       	mov	r7, r1
    1022:	00 e0       	ldi	r16, 0x00	; 0
    1024:	10 e0       	ldi	r17, 0x00	; 0
	{
			
	But0 = STLED316_Buts_Read( );//odczytaj stan przyciskw
	ButREdge = ~But1 & But0; //sprawdz czy bya zmiana stanu
	if (ButREdge & BACK){lcd_st7565r_ClrScr(LCD_PIXEL_CLR);}//po powrocie do menu wyczy ekran
	termostat();
    1026:	9e 01       	movw	r18, r28
    1028:	2f 5f       	subi	r18, 0xFF	; 255
    102a:	3f 4f       	sbci	r19, 0xFF	; 255
    102c:	49 01       	movw	r8, r18
//--------------------------------------------------------------

	while(1) //petla glowna programu
	{
			
	But0 = STLED316_Buts_Read( );//odczytaj stan przyciskw
    102e:	0e 94 a8 01 	call	0x350	; 0x350 <STLED316_Buts_Read>
    1032:	8f 8b       	std	Y+23, r24	; 0x17
    1034:	98 8f       	std	Y+24, r25	; 0x18
	ButREdge = ~But1 & But0; //sprawdz czy bya zmiana stanu
    1036:	c2 01       	movw	r24, r4
    1038:	80 95       	com	r24
    103a:	90 95       	com	r25
    103c:	cf 88       	ldd	r12, Y+23	; 0x17
    103e:	d8 8c       	ldd	r13, Y+24	; 0x18
    1040:	c8 22       	and	r12, r24
    1042:	d9 22       	and	r13, r25
	if (ButREdge & BACK){lcd_st7565r_ClrScr(LCD_PIXEL_CLR);}//po powrocie do menu wyczy ekran
    1044:	d6 fe       	sbrs	r13, 6
    1046:	03 c0       	rjmp	.+6      	; 0x104e <main+0x170>
    1048:	80 e0       	ldi	r24, 0x00	; 0
    104a:	0e 94 e7 02 	call	0x5ce	; 0x5ce <lcd_st7565r_ClrScr>
	termostat();
    104e:	14 01       	movw	r2, r8
    1050:	0e 94 f1 06 	call	0xde2	; 0xde2 <termostat.5239>
	
//--------------------------------------------------------------
	
if (inf<0) //jeli wystapi bad w poczeniu z kontrolerem 
    1054:	77 20       	and	r7, r7
    1056:	4c f0       	brlt	.+18     	; 0x106a <main+0x18c>
	nz=0;	//zmienna pomocnicza do ponownego zainicjowania
}

//--------------------------------------------------------------
	
	if(nz++<1)		// inicjowanie 
    1058:	a8 01       	movw	r20, r16
    105a:	4f 5f       	subi	r20, 0xFF	; 255
    105c:	5f 4f       	sbci	r21, 0xFF	; 255
    105e:	4a 8f       	std	Y+26, r20	; 0x1a
    1060:	5b 8f       	std	Y+27, r21	; 0x1b
    1062:	10 16       	cp	r1, r16
    1064:	11 06       	cpc	r1, r17
    1066:	0c f4       	brge	.+2      	; 0x106a <main+0x18c>
    1068:	8e c0       	rjmp	.+284    	; 0x1186 <main+0x2a8>
{
	cmd = DS1621_START; 
    106a:	8e ee       	ldi	r24, 0xEE	; 238
    106c:	89 8b       	std	Y+17, r24	; 0x11
	TWIM_WriteBuf( &TWIC, DS1621_ADDR, &cmd, 1 ); //start komunikacji
    106e:	21 e0       	ldi	r18, 0x01	; 1
    1070:	ae 01       	movw	r20, r28
    1072:	4f 5e       	subi	r20, 0xEF	; 239
    1074:	5f 4f       	sbci	r21, 0xFF	; 255
    1076:	6f e4       	ldi	r22, 0x4F	; 79
    1078:	80 e8       	ldi	r24, 0x80	; 128
    107a:	94 e0       	ldi	r25, 0x04	; 4
    107c:	0e 94 dd 0d 	call	0x1bba	; 0x1bba <TWIM_WriteBuf>
		
	cmd = DS1621_TH;					//odczytaj temperature TH w czujniku aby ustawiac od tej temp. w Ustaw TH  
    1080:	81 ea       	ldi	r24, 0xA1	; 161
    1082:	89 8b       	std	Y+17, r24	; 0x11
	TWIM_ReadBuf( &TWIC, DS1621_ADDR, &cmd, 1, buf, 2 );
    1084:	68 94       	set
    1086:	ee 24       	eor	r14, r14
    1088:	e1 f8       	bld	r14, 1
    108a:	8e 01       	movw	r16, r28
    108c:	0e 5e       	subi	r16, 0xEE	; 238
    108e:	1f 4f       	sbci	r17, 0xFF	; 255
    1090:	21 e0       	ldi	r18, 0x01	; 1
    1092:	ae 01       	movw	r20, r28
    1094:	4f 5e       	subi	r20, 0xEF	; 239
    1096:	5f 4f       	sbci	r21, 0xFF	; 255
    1098:	6f e4       	ldi	r22, 0x4F	; 79
    109a:	80 e8       	ldi	r24, 0x80	; 128
    109c:	94 e0       	ldi	r25, 0x04	; 4
    109e:	0e 94 0c 0e 	call	0x1c18	; 0x1c18 <TWIM_ReadBuf>
	Thz = ((int16_t)buf[0] << 1) | (int16_t)(buf[1] >> 7);
    10a2:	aa 88       	ldd	r10, Y+18	; 0x12
    10a4:	b1 2c       	mov	r11, r1
    10a6:	aa 0c       	add	r10, r10
    10a8:	bb 1c       	adc	r11, r11
    10aa:	8b 89       	ldd	r24, Y+19	; 0x13
    10ac:	88 1f       	adc	r24, r24
    10ae:	88 27       	eor	r24, r24
    10b0:	88 1f       	adc	r24, r24
    10b2:	a8 2a       	or	r10, r24
	Thz *= 5;
    10b4:	c5 01       	movw	r24, r10
    10b6:	88 0f       	add	r24, r24
    10b8:	99 1f       	adc	r25, r25
    10ba:	88 0f       	add	r24, r24
    10bc:	99 1f       	adc	r25, r25
    10be:	a8 0e       	add	r10, r24
    10c0:	b9 1e       	adc	r11, r25
	sprintf( txt1, "TH =%3d.%1d", (Thz / 10), (abs( Thz ) % 10));
    10c2:	c5 01       	movw	r24, r10
    10c4:	bb 20       	and	r11, r11
    10c6:	24 f4       	brge	.+8      	; 0x10d0 <main+0x1f2>
    10c8:	88 27       	eor	r24, r24
    10ca:	99 27       	eor	r25, r25
    10cc:	8a 19       	sub	r24, r10
    10ce:	9b 09       	sbc	r25, r11
    10d0:	6a e0       	ldi	r22, 0x0A	; 10
    10d2:	70 e0       	ldi	r23, 0x00	; 0
    10d4:	0e 94 41 10 	call	0x2082	; 0x2082 <__divmodhi4>
    10d8:	9f 93       	push	r25
    10da:	8f 93       	push	r24
    10dc:	c5 01       	movw	r24, r10
    10de:	6a e0       	ldi	r22, 0x0A	; 10
    10e0:	70 e0       	ldi	r23, 0x00	; 0
    10e2:	0e 94 41 10 	call	0x2082	; 0x2082 <__divmodhi4>
    10e6:	7f 93       	push	r23
    10e8:	6f 93       	push	r22
    10ea:	83 e8       	ldi	r24, 0x83	; 131
    10ec:	9e e2       	ldi	r25, 0x2E	; 46
    10ee:	9f 93       	push	r25
    10f0:	8f 93       	push	r24
    10f2:	9f 92       	push	r9
    10f4:	8f 92       	push	r8
    10f6:	0e 94 8b 10 	call	0x2116	; 0x2116 <sprintf>
		
	cmd = DS1621_TL;				//odczytaj temperature TL w czujniku aby ustawiac od tej temp. w Ustaw TH  
    10fa:	82 ea       	ldi	r24, 0xA2	; 162
    10fc:	89 8b       	std	Y+17, r24	; 0x11
	TWIM_ReadBuf( &TWIC, DS1621_ADDR, &cmd, 1, buf, 2 );
    10fe:	68 94       	set
    1100:	ee 24       	eor	r14, r14
    1102:	e1 f8       	bld	r14, 1
    1104:	8e 01       	movw	r16, r28
    1106:	0e 5e       	subi	r16, 0xEE	; 238
    1108:	1f 4f       	sbci	r17, 0xFF	; 255
    110a:	21 e0       	ldi	r18, 0x01	; 1
    110c:	ae 01       	movw	r20, r28
    110e:	4f 5e       	subi	r20, 0xEF	; 239
    1110:	5f 4f       	sbci	r21, 0xFF	; 255
    1112:	6f e4       	ldi	r22, 0x4F	; 79
    1114:	80 e8       	ldi	r24, 0x80	; 128
    1116:	94 e0       	ldi	r25, 0x04	; 4
    1118:	0e 94 0c 0e 	call	0x1c18	; 0x1c18 <TWIM_ReadBuf>
	Tlz = ((int16_t)buf[0] << 1) | (int16_t)(buf[1] >> 7);
    111c:	8a 89       	ldd	r24, Y+18	; 0x12
    111e:	90 e0       	ldi	r25, 0x00	; 0
    1120:	88 0f       	add	r24, r24
    1122:	99 1f       	adc	r25, r25
    1124:	2b 89       	ldd	r18, Y+19	; 0x13
    1126:	22 1f       	adc	r18, r18
    1128:	22 27       	eor	r18, r18
    112a:	22 1f       	adc	r18, r18
    112c:	82 2b       	or	r24, r18
	Tlz *= 5;
    112e:	9c 01       	movw	r18, r24
    1130:	22 0f       	add	r18, r18
    1132:	33 1f       	adc	r19, r19
    1134:	22 0f       	add	r18, r18
    1136:	33 1f       	adc	r19, r19
    1138:	a9 01       	movw	r20, r18
    113a:	48 0f       	add	r20, r24
    113c:	59 1f       	adc	r21, r25
    113e:	4e 8f       	std	Y+30, r20	; 0x1e
    1140:	5f 8f       	std	Y+31, r21	; 0x1f
	sprintf( txt1, "TL =%3d.%1d", (Tlz / 10), (abs( Tlz ) % 10));
    1142:	ca 01       	movw	r24, r20
    1144:	55 23       	and	r21, r21
    1146:	1c f4       	brge	.+6      	; 0x114e <main+0x270>
    1148:	91 95       	neg	r25
    114a:	81 95       	neg	r24
    114c:	91 09       	sbc	r25, r1
    114e:	6a e0       	ldi	r22, 0x0A	; 10
    1150:	70 e0       	ldi	r23, 0x00	; 0
    1152:	0e 94 41 10 	call	0x2082	; 0x2082 <__divmodhi4>
    1156:	9f 93       	push	r25
    1158:	8f 93       	push	r24
    115a:	8e 8d       	ldd	r24, Y+30	; 0x1e
    115c:	9f 8d       	ldd	r25, Y+31	; 0x1f
    115e:	6a e0       	ldi	r22, 0x0A	; 10
    1160:	70 e0       	ldi	r23, 0x00	; 0
    1162:	0e 94 41 10 	call	0x2082	; 0x2082 <__divmodhi4>
    1166:	7f 93       	push	r23
    1168:	6f 93       	push	r22
    116a:	8f e8       	ldi	r24, 0x8F	; 143
    116c:	9e e2       	ldi	r25, 0x2E	; 46
    116e:	9f 93       	push	r25
    1170:	8f 93       	push	r24
    1172:	9f 92       	push	r9
    1174:	8f 92       	push	r8
    1176:	0e 94 8b 10 	call	0x2116	; 0x2116 <sprintf>
    117a:	cd bf       	out	0x3d, r28	; 61
    117c:	de bf       	out	0x3e, r29	; 62
								
	nz=31; //zmienna pomocnicza eby nie powtarzao inicjalizacji
    117e:	2f e1       	ldi	r18, 0x1F	; 31
    1180:	30 e0       	ldi	r19, 0x00	; 0
    1182:	2a 8f       	std	Y+26, r18	; 0x1a
    1184:	3b 8f       	std	Y+27, r19	; 0x1b

	//---------------------------
	
	//Menu graficzne programu
	//licznik menu programu
	if ((ButREdge & DOWN) != 0)		//licznik menu gra
    1186:	dd 20       	and	r13, r13
    1188:	34 f4       	brge	.+12     	; 0x1196 <main+0x2b8>
	{
		m++;
    118a:	39 8d       	ldd	r19, Y+25	; 0x19
    118c:	3f 5f       	subi	r19, 0xFF	; 255
    118e:	39 8f       	std	Y+25, r19	; 0x19
		if (m>5) m=0;
    1190:	36 30       	cpi	r19, 0x06	; 6
    1192:	0c f0       	brlt	.+2      	; 0x1196 <main+0x2b8>
    1194:	19 8e       	std	Y+25, r1	; 0x19
	}

	if ((ButREdge & UP) != 0)		//licznik menu d
    1196:	c7 fe       	sbrs	r12, 7
    1198:	05 c0       	rjmp	.+10     	; 0x11a4 <main+0x2c6>
	{
		m--;
    119a:	49 8d       	ldd	r20, Y+25	; 0x19
    119c:	41 50       	subi	r20, 0x01	; 1
    119e:	49 8f       	std	Y+25, r20	; 0x19
		if (m<0) m=5;
    11a0:	44 23       	and	r20, r20
    11a2:	44 f1       	brlt	.+80     	; 0x11f4 <main+0x316>
	}
	
	//wywietlanie menu programu
	
	if (m==0)
    11a4:	59 8d       	ldd	r21, Y+25	; 0x19
    11a6:	51 11       	cpse	r21, r1
    11a8:	11 c0       	rjmp	.+34     	; 0x11cc <main+0x2ee>
	{
		sprintf( txt1, "Pomiar reczny       ");
    11aa:	85 e1       	ldi	r24, 0x15	; 21
    11ac:	eb e9       	ldi	r30, 0x9B	; 155
    11ae:	fe e2       	ldi	r31, 0x2E	; 46
    11b0:	d4 01       	movw	r26, r8
    11b2:	01 90       	ld	r0, Z+
    11b4:	0d 92       	st	X+, r0
    11b6:	8a 95       	dec	r24
    11b8:	e1 f7       	brne	.-8      	; 0x11b2 <main+0x2d4>
		lcd_st7565r_GotoTextXY( 0, 0 );
    11ba:	60 e0       	ldi	r22, 0x00	; 0
    11bc:	80 e0       	ldi	r24, 0x00	; 0
    11be:	0e 94 2c 03 	call	0x658	; 0x658 <lcd_st7565r_GotoTextXY>
		lcd_st7565r_DrawText( txt1, LCD_PIXEL_SET );
    11c2:	61 e0       	ldi	r22, 0x01	; 1
    11c4:	c4 01       	movw	r24, r8
    11c6:	0e 94 58 04 	call	0x8b0	; 0x8b0 <lcd_st7565r_DrawText>
    11ca:	2a c0       	rjmp	.+84     	; 0x1220 <main+0x342>
	}

	if (m==1)
    11cc:	89 8d       	ldd	r24, Y+25	; 0x19
    11ce:	81 30       	cpi	r24, 0x01	; 1
    11d0:	99 f4       	brne	.+38     	; 0x11f8 <main+0x31a>
	{
		sprintf( txt1, "Pomiar automatyczny ");
    11d2:	85 e1       	ldi	r24, 0x15	; 21
    11d4:	e0 eb       	ldi	r30, 0xB0	; 176
    11d6:	fe e2       	ldi	r31, 0x2E	; 46
    11d8:	d4 01       	movw	r26, r8
    11da:	01 90       	ld	r0, Z+
    11dc:	0d 92       	st	X+, r0
    11de:	8a 95       	dec	r24
    11e0:	e1 f7       	brne	.-8      	; 0x11da <main+0x2fc>
		lcd_st7565r_GotoTextXY( 0, 0 );
    11e2:	60 e0       	ldi	r22, 0x00	; 0
    11e4:	80 e0       	ldi	r24, 0x00	; 0
    11e6:	0e 94 2c 03 	call	0x658	; 0x658 <lcd_st7565r_GotoTextXY>
		lcd_st7565r_DrawText( txt1, LCD_PIXEL_SET );
    11ea:	61 e0       	ldi	r22, 0x01	; 1
    11ec:	c4 01       	movw	r24, r8
    11ee:	0e 94 58 04 	call	0x8b0	; 0x8b0 <lcd_st7565r_DrawText>
    11f2:	2a c0       	rjmp	.+84     	; 0x1248 <main+0x36a>
	}

	if ((ButREdge & UP) != 0)		//licznik menu d
	{
		m--;
		if (m<0) m=5;
    11f4:	95 e0       	ldi	r25, 0x05	; 5
    11f6:	99 8f       	std	Y+25, r25	; 0x19
		sprintf( txt1, "Pomiar automatyczny ");
		lcd_st7565r_GotoTextXY( 0, 0 );
		lcd_st7565r_DrawText( txt1, LCD_PIXEL_SET );
	}

	if (m==2)
    11f8:	29 8d       	ldd	r18, Y+25	; 0x19
    11fa:	22 30       	cpi	r18, 0x02	; 2
    11fc:	89 f4       	brne	.+34     	; 0x1220 <main+0x342>
	{
		sprintf( txt1, "Odczyt TH i TL      ");
    11fe:	85 e1       	ldi	r24, 0x15	; 21
    1200:	e5 ec       	ldi	r30, 0xC5	; 197
    1202:	fe e2       	ldi	r31, 0x2E	; 46
    1204:	d4 01       	movw	r26, r8
    1206:	01 90       	ld	r0, Z+
    1208:	0d 92       	st	X+, r0
    120a:	8a 95       	dec	r24
    120c:	e1 f7       	brne	.-8      	; 0x1206 <main+0x328>
		lcd_st7565r_GotoTextXY( 0, 0 );
    120e:	60 e0       	ldi	r22, 0x00	; 0
    1210:	80 e0       	ldi	r24, 0x00	; 0
    1212:	0e 94 2c 03 	call	0x658	; 0x658 <lcd_st7565r_GotoTextXY>
		lcd_st7565r_DrawText( txt1, LCD_PIXEL_SET );
    1216:	61 e0       	ldi	r22, 0x01	; 1
    1218:	c4 01       	movw	r24, r8
    121a:	0e 94 58 04 	call	0x8b0	; 0x8b0 <lcd_st7565r_DrawText>
    121e:	28 c0       	rjmp	.+80     	; 0x1270 <main+0x392>
	}

	if (m==3)
    1220:	39 8d       	ldd	r19, Y+25	; 0x19
    1222:	33 30       	cpi	r19, 0x03	; 3
    1224:	89 f4       	brne	.+34     	; 0x1248 <main+0x36a>
	{
		sprintf( txt1, "Odczyt CFG          ");
    1226:	85 e1       	ldi	r24, 0x15	; 21
    1228:	ea ed       	ldi	r30, 0xDA	; 218
    122a:	fe e2       	ldi	r31, 0x2E	; 46
    122c:	d4 01       	movw	r26, r8
    122e:	01 90       	ld	r0, Z+
    1230:	0d 92       	st	X+, r0
    1232:	8a 95       	dec	r24
    1234:	e1 f7       	brne	.-8      	; 0x122e <main+0x350>
		lcd_st7565r_GotoTextXY( 0, 0 );
    1236:	60 e0       	ldi	r22, 0x00	; 0
    1238:	80 e0       	ldi	r24, 0x00	; 0
    123a:	0e 94 2c 03 	call	0x658	; 0x658 <lcd_st7565r_GotoTextXY>
		lcd_st7565r_DrawText( txt1, LCD_PIXEL_SET );
    123e:	61 e0       	ldi	r22, 0x01	; 1
    1240:	c4 01       	movw	r24, r8
    1242:	0e 94 58 04 	call	0x8b0	; 0x8b0 <lcd_st7565r_DrawText>
    1246:	28 c0       	rjmp	.+80     	; 0x1298 <main+0x3ba>
	}

	if (m==4)
    1248:	49 8d       	ldd	r20, Y+25	; 0x19
    124a:	44 30       	cpi	r20, 0x04	; 4
    124c:	89 f4       	brne	.+34     	; 0x1270 <main+0x392>
	{
		sprintf( txt1, "Ustaw TH          ");
    124e:	83 e1       	ldi	r24, 0x13	; 19
    1250:	ef ee       	ldi	r30, 0xEF	; 239
    1252:	fe e2       	ldi	r31, 0x2E	; 46
    1254:	d4 01       	movw	r26, r8
    1256:	01 90       	ld	r0, Z+
    1258:	0d 92       	st	X+, r0
    125a:	8a 95       	dec	r24
    125c:	e1 f7       	brne	.-8      	; 0x1256 <main+0x378>
		lcd_st7565r_GotoTextXY( 0, 0 );
    125e:	60 e0       	ldi	r22, 0x00	; 0
    1260:	80 e0       	ldi	r24, 0x00	; 0
    1262:	0e 94 2c 03 	call	0x658	; 0x658 <lcd_st7565r_GotoTextXY>
		
		lcd_st7565r_DrawText( txt1, LCD_PIXEL_SET );
    1266:	61 e0       	ldi	r22, 0x01	; 1
    1268:	c4 01       	movw	r24, r8
    126a:	0e 94 58 04 	call	0x8b0	; 0x8b0 <lcd_st7565r_DrawText>
    126e:	a5 c0       	rjmp	.+330    	; 0x13ba <main+0x4dc>
	}

	if (m==5)
    1270:	59 8d       	ldd	r21, Y+25	; 0x19
    1272:	55 30       	cpi	r21, 0x05	; 5
    1274:	89 f4       	brne	.+34     	; 0x1298 <main+0x3ba>
	{
		sprintf( txt1, "Ustaw TL            ");
    1276:	85 e1       	ldi	r24, 0x15	; 21
    1278:	e2 e0       	ldi	r30, 0x02	; 2
    127a:	ff e2       	ldi	r31, 0x2F	; 47
    127c:	d4 01       	movw	r26, r8
    127e:	01 90       	ld	r0, Z+
    1280:	0d 92       	st	X+, r0
    1282:	8a 95       	dec	r24
    1284:	e1 f7       	brne	.-8      	; 0x127e <main+0x3a0>
		lcd_st7565r_GotoTextXY( 0, 0 );
    1286:	60 e0       	ldi	r22, 0x00	; 0
    1288:	80 e0       	ldi	r24, 0x00	; 0
    128a:	0e 94 2c 03 	call	0x658	; 0x658 <lcd_st7565r_GotoTextXY>
		lcd_st7565r_DrawText( txt1, LCD_PIXEL_SET );
    128e:	61 e0       	ldi	r22, 0x01	; 1
    1290:	c4 01       	movw	r24, r8
    1292:	0e 94 58 04 	call	0x8b0	; 0x8b0 <lcd_st7565r_DrawText>
    1296:	19 c1       	rjmp	.+562    	; 0x14ca <main+0x5ec>
	}
	
	//podmenu programu
	
if ((m==0) && ((ButREdge & OK) != 0))		// odczyt reczny
    1298:	89 8d       	ldd	r24, Y+25	; 0x19
    129a:	81 11       	cpse	r24, r1
    129c:	8e c0       	rjmp	.+284    	; 0x13ba <main+0x4dc>
    129e:	c6 fe       	sbrs	r12, 6
    12a0:	e1 c1       	rjmp	.+962    	; 0x1664 <main+0x786>
		ButREdge = ~But1 & But0;
		termostat();
		
		if(((ButREdge & OK) != 0))		
		{
			cmd = DS1621_TEMP;				//komenda odczytu temperatury
    12a2:	0f 2e       	mov	r0, r31
    12a4:	fa ea       	ldi	r31, 0xAA	; 170
    12a6:	ff 2e       	mov	r15, r31
    12a8:	f0 2d       	mov	r31, r0
	
if ((m==0) && ((ButREdge & OK) != 0))		// odczyt reczny
{
	while (1)
	{
		But0 = STLED316_Buts_Read( );
    12aa:	0e 94 a8 01 	call	0x350	; 0x350 <STLED316_Buts_Read>
    12ae:	8f 8b       	std	Y+23, r24	; 0x17
    12b0:	98 8f       	std	Y+24, r25	; 0x18
		ButREdge = ~But1 & But0;
    12b2:	62 01       	movw	r12, r4
    12b4:	c0 94       	com	r12
    12b6:	d0 94       	com	r13
    12b8:	c8 22       	and	r12, r24
    12ba:	d9 22       	and	r13, r25
		termostat();
    12bc:	14 01       	movw	r2, r8
    12be:	0e 94 f1 06 	call	0xde2	; 0xde2 <termostat.5239>
		
		if(((ButREdge & OK) != 0))		
    12c2:	c6 fe       	sbrs	r12, 6
    12c4:	4e c0       	rjmp	.+156    	; 0x1362 <main+0x484>
		{
			cmd = DS1621_TEMP;				//komenda odczytu temperatury
    12c6:	f9 8a       	std	Y+17, r15	; 0x11
			inf=TWIM_ReadBuf( &TWIC, DS1621_ADDR, &cmd, 1, buf, 2 ); 
    12c8:	68 94       	set
    12ca:	ee 24       	eor	r14, r14
    12cc:	e1 f8       	bld	r14, 1
    12ce:	8e 01       	movw	r16, r28
    12d0:	0e 5e       	subi	r16, 0xEE	; 238
    12d2:	1f 4f       	sbci	r17, 0xFF	; 255
    12d4:	21 e0       	ldi	r18, 0x01	; 1
    12d6:	ae 01       	movw	r20, r28
    12d8:	4f 5e       	subi	r20, 0xEF	; 239
    12da:	5f 4f       	sbci	r21, 0xFF	; 255
    12dc:	6f e4       	ldi	r22, 0x4F	; 79
    12de:	80 e8       	ldi	r24, 0x80	; 128
    12e0:	94 e0       	ldi	r25, 0x04	; 4
    12e2:	0e 94 0c 0e 	call	0x1c18	; 0x1c18 <TWIM_ReadBuf>
    12e6:	18 2f       	mov	r17, r24
    12e8:	68 2e       	mov	r6, r24
    12ea:	88 0f       	add	r24, r24
    12ec:	77 08       	sbc	r7, r7
			temp = ((int16_t)buf[0] << 1) | (int16_t)(buf[1] >> 7);
    12ee:	2a 89       	ldd	r18, Y+18	; 0x12
    12f0:	30 e0       	ldi	r19, 0x00	; 0
    12f2:	22 0f       	add	r18, r18
    12f4:	33 1f       	adc	r19, r19
    12f6:	8b 89       	ldd	r24, Y+19	; 0x13
    12f8:	88 1f       	adc	r24, r24
    12fa:	88 27       	eor	r24, r24
    12fc:	88 1f       	adc	r24, r24
    12fe:	28 2b       	or	r18, r24
			temp *= 5;
    1300:	c9 01       	movw	r24, r18
    1302:	88 0f       	add	r24, r24
    1304:	99 1f       	adc	r25, r25
    1306:	88 0f       	add	r24, r24
    1308:	99 1f       	adc	r25, r25
    130a:	28 0f       	add	r18, r24
    130c:	39 1f       	adc	r19, r25
			sprintf( txt1, "T =%3d.%1d", (temp / 10), (abs( temp ) % 10)); // Wywietl temperatur
    130e:	c9 01       	movw	r24, r18
    1310:	33 23       	and	r19, r19
    1312:	24 f4       	brge	.+8      	; 0x131c <main+0x43e>
    1314:	88 27       	eor	r24, r24
    1316:	99 27       	eor	r25, r25
    1318:	82 1b       	sub	r24, r18
    131a:	93 0b       	sbc	r25, r19
    131c:	6a e0       	ldi	r22, 0x0A	; 10
    131e:	70 e0       	ldi	r23, 0x00	; 0
    1320:	0e 94 41 10 	call	0x2082	; 0x2082 <__divmodhi4>
    1324:	9f 93       	push	r25
    1326:	8f 93       	push	r24
    1328:	c9 01       	movw	r24, r18
    132a:	6a e0       	ldi	r22, 0x0A	; 10
    132c:	70 e0       	ldi	r23, 0x00	; 0
    132e:	0e 94 41 10 	call	0x2082	; 0x2082 <__divmodhi4>
    1332:	7f 93       	push	r23
    1334:	6f 93       	push	r22
    1336:	27 e1       	ldi	r18, 0x17	; 23
    1338:	3f e2       	ldi	r19, 0x2F	; 47
    133a:	3f 93       	push	r19
    133c:	2f 93       	push	r18
    133e:	9f 92       	push	r9
    1340:	8f 92       	push	r8
    1342:	0e 94 8b 10 	call	0x2116	; 0x2116 <sprintf>
			lcd_st7565r_GotoTextXY( 0, 10 );      
    1346:	6a e0       	ldi	r22, 0x0A	; 10
    1348:	80 e0       	ldi	r24, 0x00	; 0
    134a:	0e 94 2c 03 	call	0x658	; 0x658 <lcd_st7565r_GotoTextXY>
			lcd_st7565r_DrawText( txt1, LCD_PIXEL_SET );
    134e:	61 e0       	ldi	r22, 0x01	; 1
    1350:	c4 01       	movw	r24, r8
    1352:	0e 94 58 04 	call	0x8b0	; 0x8b0 <lcd_st7565r_DrawText>
			error(inf); //wywoaj funkcje error 
    1356:	14 01       	movw	r2, r8
    1358:	81 2f       	mov	r24, r17
    135a:	0e 94 1f 07 	call	0xe3e	; 0xe3e <error.5242>
    135e:	cd bf       	out	0x3d, r28	; 61
    1360:	de bf       	out	0x3e, r29	; 62
			}
							
		if (inf<0) //powrt do menu po bdzie
    1362:	77 20       	and	r7, r7
    1364:	8c f4       	brge	.+34     	; 0x1388 <main+0x4aa>
		{
			sprintf( txt1, "              ");
    1366:	8f e0       	ldi	r24, 0x0F	; 15
    1368:	e8 e3       	ldi	r30, 0x38	; 56
    136a:	ff e2       	ldi	r31, 0x2F	; 47
    136c:	d4 01       	movw	r26, r8
    136e:	01 90       	ld	r0, Z+
    1370:	0d 92       	st	X+, r0
    1372:	8a 95       	dec	r24
    1374:	e1 f7       	brne	.-8      	; 0x136e <main+0x490>
			lcd_st7565r_GotoTextXY( 0, 10 );
    1376:	6a e0       	ldi	r22, 0x0A	; 10
    1378:	80 e0       	ldi	r24, 0x00	; 0
    137a:	0e 94 2c 03 	call	0x658	; 0x658 <lcd_st7565r_GotoTextXY>
			lcd_st7565r_DrawText( txt1, LCD_PIXEL_SET );
    137e:	61 e0       	ldi	r22, 0x01	; 1
    1380:	c4 01       	movw	r24, r8
    1382:	0e 94 58 04 	call	0x8b0	; 0x8b0 <lcd_st7565r_DrawText>
			break;
    1386:	6e c1       	rjmp	.+732    	; 0x1664 <main+0x786>
		}
		else
		{sprintf( txt1, "Odczyt-ok (S7)");
    1388:	8f e0       	ldi	r24, 0x0F	; 15
    138a:	e2 e2       	ldi	r30, 0x22	; 34
    138c:	ff e2       	ldi	r31, 0x2F	; 47
    138e:	d4 01       	movw	r26, r8
    1390:	01 90       	ld	r0, Z+
    1392:	0d 92       	st	X+, r0
    1394:	8a 95       	dec	r24
    1396:	e1 f7       	brne	.-8      	; 0x1390 <main+0x4b2>
			lcd_st7565r_GotoTextXY( 0, 20 );
    1398:	64 e1       	ldi	r22, 0x14	; 20
    139a:	80 e0       	ldi	r24, 0x00	; 0
    139c:	0e 94 2c 03 	call	0x658	; 0x658 <lcd_st7565r_GotoTextXY>
			lcd_st7565r_DrawText( txt1, LCD_PIXEL_SET );}
    13a0:	61 e0       	ldi	r22, 0x01	; 1
    13a2:	c4 01       	movw	r24, r8
    13a4:	0e 94 58 04 	call	0x8b0	; 0x8b0 <lcd_st7565r_DrawText>
							
		if (STLED316_Buts_Read( ) == BACK) //jesli przycisk back wcisniety powrt do menu gwnego
    13a8:	0e 94 a8 01 	call	0x350	; 0x350 <STLED316_Buts_Read>
	
if ((m==0) && ((ButREdge & OK) != 0))		// odczyt reczny
{
	while (1)
	{
		But0 = STLED316_Buts_Read( );
    13ac:	4f 88       	ldd	r4, Y+23	; 0x17
    13ae:	58 8c       	ldd	r5, Y+24	; 0x18
		else
		{sprintf( txt1, "Odczyt-ok (S7)");
			lcd_st7565r_GotoTextXY( 0, 20 );
			lcd_st7565r_DrawText( txt1, LCD_PIXEL_SET );}
							
		if (STLED316_Buts_Read( ) == BACK) //jesli przycisk back wcisniety powrt do menu gwnego
    13b0:	81 15       	cp	r24, r1
    13b2:	90 44       	sbci	r25, 0x40	; 64
    13b4:	09 f0       	breq	.+2      	; 0x13b8 <main+0x4da>
    13b6:	79 cf       	rjmp	.-270    	; 0x12aa <main+0x3cc>
    13b8:	55 c1       	rjmp	.+682    	; 0x1664 <main+0x786>
		}
		But1=But0;
	}
}

	if ((m==1) && ((ButREdge & OK) != 0))		//odczyt automatyczny
    13ba:	39 8d       	ldd	r19, Y+25	; 0x19
    13bc:	31 30       	cpi	r19, 0x01	; 1
    13be:	09 f0       	breq	.+2      	; 0x13c2 <main+0x4e4>
    13c0:	84 c0       	rjmp	.+264    	; 0x14ca <main+0x5ec>
    13c2:	c6 fe       	sbrs	r12, 6
    13c4:	2f c3       	rjmp	.+1630   	; 0x1a24 <main+0xb46>
	{
		a=7000; // zmienna pomocnicza
		lcd_st7565r_ClrScr(LCD_PIXEL_CLR);	//wyczy cay ekran
    13c6:	80 e0       	ldi	r24, 0x00	; 0
    13c8:	0e 94 e7 02 	call	0x5ce	; 0x5ce <lcd_st7565r_ClrScr>
	}
}

	if ((m==1) && ((ButREdge & OK) != 0))		//odczyt automatyczny
	{
		a=7000; // zmienna pomocnicza
    13cc:	08 e5       	ldi	r16, 0x58	; 88
    13ce:	1b e1       	ldi	r17, 0x1B	; 27
		while (1)
		{
			
		if(a++>6000)	
		{
			cmd = DS1621_TEMP;
    13d0:	0f 2e       	mov	r0, r31
    13d2:	fa ea       	ldi	r31, 0xAA	; 170
    13d4:	ff 2e       	mov	r15, r31
    13d6:	f0 2d       	mov	r31, r0
			inf=TWIM_ReadBuf( &TWIC, DS1621_ADDR, &cmd, 1, buf, 2 );
			temp = ((int16_t)buf[0] << 1) | (int16_t)(buf[1] >> 7);
			temp *= 5;
			sprintf( txt1, "T =%3d.%1d", (temp / 10), (abs( temp ) % 10));
    13d8:	0f 2e       	mov	r0, r31
    13da:	f7 e1       	ldi	r31, 0x17	; 23
    13dc:	4f 2e       	mov	r4, r31
    13de:	ff e2       	ldi	r31, 0x2F	; 47
    13e0:	5f 2e       	mov	r5, r31
    13e2:	f0 2d       	mov	r31, r0
		lcd_st7565r_ClrScr(LCD_PIXEL_CLR);	//wyczy cay ekran
		
		while (1)
		{
			
		if(a++>6000)	
    13e4:	01 37       	cpi	r16, 0x71	; 113
    13e6:	47 e1       	ldi	r20, 0x17	; 23
    13e8:	14 07       	cpc	r17, r20
    13ea:	1c f4       	brge	.+6      	; 0x13f2 <main+0x514>
    13ec:	0f 5f       	subi	r16, 0xFF	; 255
    13ee:	1f 4f       	sbci	r17, 0xFF	; 255
    13f0:	50 c0       	rjmp	.+160    	; 0x1492 <main+0x5b4>
		{
			cmd = DS1621_TEMP;
    13f2:	f9 8a       	std	Y+17, r15	; 0x11
			inf=TWIM_ReadBuf( &TWIC, DS1621_ADDR, &cmd, 1, buf, 2 );
    13f4:	68 94       	set
    13f6:	ee 24       	eor	r14, r14
    13f8:	e1 f8       	bld	r14, 1
    13fa:	8e 01       	movw	r16, r28
    13fc:	0e 5e       	subi	r16, 0xEE	; 238
    13fe:	1f 4f       	sbci	r17, 0xFF	; 255
    1400:	21 e0       	ldi	r18, 0x01	; 1
    1402:	ae 01       	movw	r20, r28
    1404:	4f 5e       	subi	r20, 0xEF	; 239
    1406:	5f 4f       	sbci	r21, 0xFF	; 255
    1408:	6f e4       	ldi	r22, 0x4F	; 79
    140a:	80 e8       	ldi	r24, 0x80	; 128
    140c:	94 e0       	ldi	r25, 0x04	; 4
    140e:	0e 94 0c 0e 	call	0x1c18	; 0x1c18 <TWIM_ReadBuf>
    1412:	18 2f       	mov	r17, r24
    1414:	68 2e       	mov	r6, r24
    1416:	88 0f       	add	r24, r24
    1418:	77 08       	sbc	r7, r7
			temp = ((int16_t)buf[0] << 1) | (int16_t)(buf[1] >> 7);
    141a:	2a 89       	ldd	r18, Y+18	; 0x12
    141c:	30 e0       	ldi	r19, 0x00	; 0
    141e:	22 0f       	add	r18, r18
    1420:	33 1f       	adc	r19, r19
    1422:	8b 89       	ldd	r24, Y+19	; 0x13
    1424:	88 1f       	adc	r24, r24
    1426:	88 27       	eor	r24, r24
    1428:	88 1f       	adc	r24, r24
    142a:	28 2b       	or	r18, r24
			temp *= 5;
    142c:	c9 01       	movw	r24, r18
    142e:	88 0f       	add	r24, r24
    1430:	99 1f       	adc	r25, r25
    1432:	88 0f       	add	r24, r24
    1434:	99 1f       	adc	r25, r25
    1436:	28 0f       	add	r18, r24
    1438:	39 1f       	adc	r19, r25
			sprintf( txt1, "T =%3d.%1d", (temp / 10), (abs( temp ) % 10));
    143a:	c9 01       	movw	r24, r18
    143c:	33 23       	and	r19, r19
    143e:	24 f4       	brge	.+8      	; 0x1448 <main+0x56a>
    1440:	88 27       	eor	r24, r24
    1442:	99 27       	eor	r25, r25
    1444:	82 1b       	sub	r24, r18
    1446:	93 0b       	sbc	r25, r19
    1448:	6a e0       	ldi	r22, 0x0A	; 10
    144a:	70 e0       	ldi	r23, 0x00	; 0
    144c:	0e 94 41 10 	call	0x2082	; 0x2082 <__divmodhi4>
    1450:	9f 93       	push	r25
    1452:	8f 93       	push	r24
    1454:	c9 01       	movw	r24, r18
    1456:	6a e0       	ldi	r22, 0x0A	; 10
    1458:	70 e0       	ldi	r23, 0x00	; 0
    145a:	0e 94 41 10 	call	0x2082	; 0x2082 <__divmodhi4>
    145e:	7f 93       	push	r23
    1460:	6f 93       	push	r22
    1462:	5f 92       	push	r5
    1464:	4f 92       	push	r4
    1466:	9f 92       	push	r9
    1468:	8f 92       	push	r8
    146a:	0e 94 8b 10 	call	0x2116	; 0x2116 <sprintf>
			lcd_st7565r_GotoTextXY( 0, 10 );       // Wywietl temperatur
    146e:	6a e0       	ldi	r22, 0x0A	; 10
    1470:	80 e0       	ldi	r24, 0x00	; 0
    1472:	0e 94 2c 03 	call	0x658	; 0x658 <lcd_st7565r_GotoTextXY>
			lcd_st7565r_DrawText( txt1, LCD_PIXEL_SET );
    1476:	61 e0       	ldi	r22, 0x01	; 1
    1478:	c4 01       	movw	r24, r8
    147a:	0e 94 58 04 	call	0x8b0	; 0x8b0 <lcd_st7565r_DrawText>
			a=0;
			termostat();
    147e:	14 01       	movw	r2, r8
    1480:	0e 94 f1 06 	call	0xde2	; 0xde2 <termostat.5239>
			error(inf);
    1484:	81 2f       	mov	r24, r17
    1486:	0e 94 1f 07 	call	0xe3e	; 0xe3e <error.5242>
    148a:	cd bf       	out	0x3d, r28	; 61
    148c:	de bf       	out	0x3e, r29	; 62
			temp = ((int16_t)buf[0] << 1) | (int16_t)(buf[1] >> 7);
			temp *= 5;
			sprintf( txt1, "T =%3d.%1d", (temp / 10), (abs( temp ) % 10));
			lcd_st7565r_GotoTextXY( 0, 10 );       // Wywietl temperatur
			lcd_st7565r_DrawText( txt1, LCD_PIXEL_SET );
			a=0;
    148e:	00 e0       	ldi	r16, 0x00	; 0
    1490:	10 e0       	ldi	r17, 0x00	; 0
			termostat();
			error(inf);
		}
			
		if (inf<0) //powrt do menu po bdzie
    1492:	77 20       	and	r7, r7
    1494:	9c f4       	brge	.+38     	; 0x14bc <main+0x5de>
		{
			sprintf( txt1, "              ");
    1496:	8f e0       	ldi	r24, 0x0F	; 15
    1498:	e8 e3       	ldi	r30, 0x38	; 56
    149a:	ff e2       	ldi	r31, 0x2F	; 47
    149c:	d4 01       	movw	r26, r8
    149e:	01 90       	ld	r0, Z+
    14a0:	0d 92       	st	X+, r0
    14a2:	8a 95       	dec	r24
    14a4:	e1 f7       	brne	.-8      	; 0x149e <main+0x5c0>
			lcd_st7565r_GotoTextXY( 0, 10 );
    14a6:	6a e0       	ldi	r22, 0x0A	; 10
    14a8:	80 e0       	ldi	r24, 0x00	; 0
    14aa:	0e 94 2c 03 	call	0x658	; 0x658 <lcd_st7565r_GotoTextXY>
			lcd_st7565r_DrawText( txt1, LCD_PIXEL_SET );
    14ae:	61 e0       	ldi	r22, 0x01	; 1
    14b0:	c4 01       	movw	r24, r8
    14b2:	0e 94 58 04 	call	0x8b0	; 0x8b0 <lcd_st7565r_DrawText>
			nz=0;
    14b6:	1a 8e       	std	Y+26, r1	; 0x1a
    14b8:	1b 8e       	std	Y+27, r1	; 0x1b
			break;
    14ba:	b4 c2       	rjmp	.+1384   	; 0x1a24 <main+0xb46>
		}
		
		if (STLED316_Buts_Read( ) == BACK)
    14bc:	0e 94 a8 01 	call	0x350	; 0x350 <STLED316_Buts_Read>
    14c0:	81 15       	cp	r24, r1
    14c2:	90 44       	sbci	r25, 0x40	; 64
    14c4:	09 f0       	breq	.+2      	; 0x14c8 <main+0x5ea>
    14c6:	8e cf       	rjmp	.-228    	; 0x13e4 <main+0x506>
    14c8:	ad c2       	rjmp	.+1370   	; 0x1a24 <main+0xb46>
		}
			
	}
	}

	if ((m==2) && ((ButREdge & OK) != 0))									//odczyt TH i TL
    14ca:	39 8d       	ldd	r19, Y+25	; 0x19
    14cc:	32 30       	cpi	r19, 0x02	; 2
    14ce:	09 f0       	breq	.+2      	; 0x14d2 <main+0x5f4>
    14d0:	c9 c0       	rjmp	.+402    	; 0x1664 <main+0x786>
    14d2:	c6 fe       	sbrs	r12, 6
    14d4:	aa c2       	rjmp	.+1364   	; 0x1a2a <main+0xb4c>
	{
		lcd_st7565r_ClrScr(LCD_PIXEL_CLR);
    14d6:	80 e0       	ldi	r24, 0x00	; 0
    14d8:	0e 94 e7 02 	call	0x5ce	; 0x5ce <lcd_st7565r_ClrScr>
		a=7000;
    14dc:	08 e5       	ldi	r16, 0x58	; 88
    14de:	1b e1       	ldi	r17, 0x1B	; 27
			{
			cmd = DS1621_TH;
			inf=TWIM_ReadBuf( &TWIC, DS1621_ADDR, &cmd, 1, buf, 2 );
			temp = ((int16_t)buf[0] << 1) | (int16_t)(buf[1] >> 7);
			temp *= 5;
			sprintf( txt1, "TH =%3d.%1d", (temp / 10), (abs( temp ) % 10));
    14e0:	0f 2e       	mov	r0, r31
    14e2:	f3 e8       	ldi	r31, 0x83	; 131
    14e4:	4f 2e       	mov	r4, r31
    14e6:	fe e2       	ldi	r31, 0x2E	; 46
    14e8:	5f 2e       	mov	r5, r31
    14ea:	f0 2d       	mov	r31, r0
			lcd_st7565r_GotoTextXY( 0, 10 );       
			lcd_st7565r_DrawText( txt1, LCD_PIXEL_SET );
														
			cmd = DS1621_TL;
    14ec:	0f 2e       	mov	r0, r31
    14ee:	f2 ea       	ldi	r31, 0xA2	; 162
    14f0:	ff 2e       	mov	r15, r31
    14f2:	f0 2d       	mov	r31, r0
		a=7000;
		
		while (1)
		{	
						
		if(a++>6000)		
    14f4:	01 37       	cpi	r16, 0x71	; 113
    14f6:	47 e1       	ldi	r20, 0x17	; 23
    14f8:	14 07       	cpc	r17, r20
    14fa:	1c f4       	brge	.+6      	; 0x1502 <main+0x624>
    14fc:	0f 5f       	subi	r16, 0xFF	; 255
    14fe:	1f 4f       	sbci	r17, 0xFF	; 255
    1500:	95 c0       	rjmp	.+298    	; 0x162c <main+0x74e>
			{
			cmd = DS1621_TH;
    1502:	51 ea       	ldi	r21, 0xA1	; 161
    1504:	59 8b       	std	Y+17, r21	; 0x11
			inf=TWIM_ReadBuf( &TWIC, DS1621_ADDR, &cmd, 1, buf, 2 );
    1506:	68 94       	set
    1508:	ee 24       	eor	r14, r14
    150a:	e1 f8       	bld	r14, 1
    150c:	8e 01       	movw	r16, r28
    150e:	0e 5e       	subi	r16, 0xEE	; 238
    1510:	1f 4f       	sbci	r17, 0xFF	; 255
    1512:	21 e0       	ldi	r18, 0x01	; 1
    1514:	ae 01       	movw	r20, r28
    1516:	4f 5e       	subi	r20, 0xEF	; 239
    1518:	5f 4f       	sbci	r21, 0xFF	; 255
    151a:	6f e4       	ldi	r22, 0x4F	; 79
    151c:	80 e8       	ldi	r24, 0x80	; 128
    151e:	94 e0       	ldi	r25, 0x04	; 4
    1520:	0e 94 0c 0e 	call	0x1c18	; 0x1c18 <TWIM_ReadBuf>
			temp = ((int16_t)buf[0] << 1) | (int16_t)(buf[1] >> 7);
    1524:	2a 89       	ldd	r18, Y+18	; 0x12
    1526:	30 e0       	ldi	r19, 0x00	; 0
    1528:	22 0f       	add	r18, r18
    152a:	33 1f       	adc	r19, r19
    152c:	8b 89       	ldd	r24, Y+19	; 0x13
    152e:	88 1f       	adc	r24, r24
    1530:	88 27       	eor	r24, r24
    1532:	88 1f       	adc	r24, r24
    1534:	28 2b       	or	r18, r24
			temp *= 5;
    1536:	c9 01       	movw	r24, r18
    1538:	88 0f       	add	r24, r24
    153a:	99 1f       	adc	r25, r25
    153c:	88 0f       	add	r24, r24
    153e:	99 1f       	adc	r25, r25
    1540:	28 0f       	add	r18, r24
    1542:	39 1f       	adc	r19, r25
			sprintf( txt1, "TH =%3d.%1d", (temp / 10), (abs( temp ) % 10));
    1544:	c9 01       	movw	r24, r18
    1546:	33 23       	and	r19, r19
    1548:	24 f4       	brge	.+8      	; 0x1552 <main+0x674>
    154a:	88 27       	eor	r24, r24
    154c:	99 27       	eor	r25, r25
    154e:	82 1b       	sub	r24, r18
    1550:	93 0b       	sbc	r25, r19
    1552:	6a e0       	ldi	r22, 0x0A	; 10
    1554:	70 e0       	ldi	r23, 0x00	; 0
    1556:	0e 94 41 10 	call	0x2082	; 0x2082 <__divmodhi4>
    155a:	9f 93       	push	r25
    155c:	8f 93       	push	r24
    155e:	c9 01       	movw	r24, r18
    1560:	6a e0       	ldi	r22, 0x0A	; 10
    1562:	70 e0       	ldi	r23, 0x00	; 0
    1564:	0e 94 41 10 	call	0x2082	; 0x2082 <__divmodhi4>
    1568:	7f 93       	push	r23
    156a:	6f 93       	push	r22
    156c:	5f 92       	push	r5
    156e:	4f 92       	push	r4
    1570:	9f 92       	push	r9
    1572:	8f 92       	push	r8
    1574:	0e 94 8b 10 	call	0x2116	; 0x2116 <sprintf>
			lcd_st7565r_GotoTextXY( 0, 10 );       
    1578:	6a e0       	ldi	r22, 0x0A	; 10
    157a:	80 e0       	ldi	r24, 0x00	; 0
    157c:	0e 94 2c 03 	call	0x658	; 0x658 <lcd_st7565r_GotoTextXY>
			lcd_st7565r_DrawText( txt1, LCD_PIXEL_SET );
    1580:	61 e0       	ldi	r22, 0x01	; 1
    1582:	c4 01       	movw	r24, r8
    1584:	0e 94 58 04 	call	0x8b0	; 0x8b0 <lcd_st7565r_DrawText>
														
			cmd = DS1621_TL;
    1588:	f9 8a       	std	Y+17, r15	; 0x11
			inf=TWIM_ReadBuf( &TWIC, DS1621_ADDR, &cmd, 1, buf, 2 );
    158a:	68 94       	set
    158c:	ee 24       	eor	r14, r14
    158e:	e1 f8       	bld	r14, 1
    1590:	8e 01       	movw	r16, r28
    1592:	0e 5e       	subi	r16, 0xEE	; 238
    1594:	1f 4f       	sbci	r17, 0xFF	; 255
    1596:	21 e0       	ldi	r18, 0x01	; 1
    1598:	ae 01       	movw	r20, r28
    159a:	4f 5e       	subi	r20, 0xEF	; 239
    159c:	5f 4f       	sbci	r21, 0xFF	; 255
    159e:	6f e4       	ldi	r22, 0x4F	; 79
    15a0:	80 e8       	ldi	r24, 0x80	; 128
    15a2:	94 e0       	ldi	r25, 0x04	; 4
    15a4:	0e 94 0c 0e 	call	0x1c18	; 0x1c18 <TWIM_ReadBuf>
    15a8:	18 2f       	mov	r17, r24
    15aa:	68 2e       	mov	r6, r24
    15ac:	88 0f       	add	r24, r24
    15ae:	77 08       	sbc	r7, r7
			temp = ((int16_t)buf[0] << 1) | (int16_t)(buf[1] >> 7);
    15b0:	2a 89       	ldd	r18, Y+18	; 0x12
    15b2:	30 e0       	ldi	r19, 0x00	; 0
    15b4:	22 0f       	add	r18, r18
    15b6:	33 1f       	adc	r19, r19
    15b8:	8b 89       	ldd	r24, Y+19	; 0x13
    15ba:	88 1f       	adc	r24, r24
    15bc:	88 27       	eor	r24, r24
    15be:	88 1f       	adc	r24, r24
    15c0:	28 2b       	or	r18, r24
			temp *= 5;
    15c2:	c9 01       	movw	r24, r18
    15c4:	88 0f       	add	r24, r24
    15c6:	99 1f       	adc	r25, r25
    15c8:	88 0f       	add	r24, r24
    15ca:	99 1f       	adc	r25, r25
    15cc:	28 0f       	add	r18, r24
    15ce:	39 1f       	adc	r19, r25
			sprintf( txt1, "TL =%3d.%1d", (temp / 10), (abs( temp ) % 10));
    15d0:	c9 01       	movw	r24, r18
    15d2:	33 23       	and	r19, r19
    15d4:	24 f4       	brge	.+8      	; 0x15de <main+0x700>
    15d6:	88 27       	eor	r24, r24
    15d8:	99 27       	eor	r25, r25
    15da:	82 1b       	sub	r24, r18
    15dc:	93 0b       	sbc	r25, r19
    15de:	6a e0       	ldi	r22, 0x0A	; 10
    15e0:	70 e0       	ldi	r23, 0x00	; 0
    15e2:	0e 94 41 10 	call	0x2082	; 0x2082 <__divmodhi4>
    15e6:	9f 93       	push	r25
    15e8:	8f 93       	push	r24
    15ea:	c9 01       	movw	r24, r18
    15ec:	6a e0       	ldi	r22, 0x0A	; 10
    15ee:	70 e0       	ldi	r23, 0x00	; 0
    15f0:	0e 94 41 10 	call	0x2082	; 0x2082 <__divmodhi4>
    15f4:	7f 93       	push	r23
    15f6:	6f 93       	push	r22
    15f8:	8f e8       	ldi	r24, 0x8F	; 143
    15fa:	9e e2       	ldi	r25, 0x2E	; 46
    15fc:	9f 93       	push	r25
    15fe:	8f 93       	push	r24
    1600:	9f 92       	push	r9
    1602:	8f 92       	push	r8
    1604:	0e 94 8b 10 	call	0x2116	; 0x2116 <sprintf>
			lcd_st7565r_GotoTextXY( 70, 10 );
    1608:	6a e0       	ldi	r22, 0x0A	; 10
    160a:	86 e4       	ldi	r24, 0x46	; 70
    160c:	0e 94 2c 03 	call	0x658	; 0x658 <lcd_st7565r_GotoTextXY>
			lcd_st7565r_DrawText( txt1, LCD_PIXEL_SET );
    1610:	61 e0       	ldi	r22, 0x01	; 1
    1612:	c4 01       	movw	r24, r8
    1614:	0e 94 58 04 	call	0x8b0	; 0x8b0 <lcd_st7565r_DrawText>
			
			termostat();
    1618:	14 01       	movw	r2, r8
    161a:	0e 94 f1 06 	call	0xde2	; 0xde2 <termostat.5239>
			error(inf);	
    161e:	81 2f       	mov	r24, r17
    1620:	0e 94 1f 07 	call	0xe3e	; 0xe3e <error.5242>
    1624:	cd bf       	out	0x3d, r28	; 61
    1626:	de bf       	out	0x3e, r29	; 62
			a=0;					
    1628:	00 e0       	ldi	r16, 0x00	; 0
    162a:	10 e0       	ldi	r17, 0x00	; 0
			}
		
		if (inf<0) //powrt do menu po bdzie
    162c:	77 20       	and	r7, r7
    162e:	9c f4       	brge	.+38     	; 0x1656 <main+0x778>
		{
			sprintf( txt1, "                     ");
    1630:	86 e1       	ldi	r24, 0x16	; 22
    1632:	e1 e3       	ldi	r30, 0x31	; 49
    1634:	ff e2       	ldi	r31, 0x2F	; 47
    1636:	d4 01       	movw	r26, r8
    1638:	01 90       	ld	r0, Z+
    163a:	0d 92       	st	X+, r0
    163c:	8a 95       	dec	r24
    163e:	e1 f7       	brne	.-8      	; 0x1638 <main+0x75a>
			lcd_st7565r_GotoTextXY( 0, 10 );
    1640:	6a e0       	ldi	r22, 0x0A	; 10
    1642:	80 e0       	ldi	r24, 0x00	; 0
    1644:	0e 94 2c 03 	call	0x658	; 0x658 <lcd_st7565r_GotoTextXY>
			lcd_st7565r_DrawText( txt1, LCD_PIXEL_SET );
    1648:	61 e0       	ldi	r22, 0x01	; 1
    164a:	c4 01       	movw	r24, r8
    164c:	0e 94 58 04 	call	0x8b0	; 0x8b0 <lcd_st7565r_DrawText>
			nz=0;
    1650:	1a 8e       	std	Y+26, r1	; 0x1a
    1652:	1b 8e       	std	Y+27, r1	; 0x1b
			break;
    1654:	ea c1       	rjmp	.+980    	; 0x1a2a <main+0xb4c>
		}
				
		if (STLED316_Buts_Read( ) == BACK)		
    1656:	0e 94 a8 01 	call	0x350	; 0x350 <STLED316_Buts_Read>
    165a:	81 15       	cp	r24, r1
    165c:	90 44       	sbci	r25, 0x40	; 64
    165e:	09 f0       	breq	.+2      	; 0x1662 <main+0x784>
    1660:	49 cf       	rjmp	.-366    	; 0x14f4 <main+0x616>
    1662:	e3 c1       	rjmp	.+966    	; 0x1a2a <main+0xb4c>
		}
		}
	}

	
	if ((m==3) && ((ButREdge & OK) != 0)) // odczyt cfg
    1664:	89 8d       	ldd	r24, Y+25	; 0x19
    1666:	83 30       	cpi	r24, 0x03	; 3
    1668:	09 f0       	breq	.+2      	; 0x166c <main+0x78e>
    166a:	62 c0       	rjmp	.+196    	; 0x1730 <main+0x852>
    166c:	c6 fe       	sbrs	r12, 6
    166e:	e2 c1       	rjmp	.+964    	; 0x1a34 <main+0xb56>
	{
		a=7000;
		lcd_st7565r_ClrScr(LCD_PIXEL_CLR);
    1670:	80 e0       	ldi	r24, 0x00	; 0
    1672:	0e 94 e7 02 	call	0x5ce	; 0x5ce <lcd_st7565r_ClrScr>
	}

	
	if ((m==3) && ((ButREdge & OK) != 0)) // odczyt cfg
	{
		a=7000;
    1676:	08 e5       	ldi	r16, 0x58	; 88
    1678:	1b e1       	ldi	r17, 0x1B	; 27
		
	while (1)
	{
		if(a++>6000)		
		{
			cmd = DS1621_CFG;
    167a:	0f 2e       	mov	r0, r31
    167c:	fc ea       	ldi	r31, 0xAC	; 172
    167e:	ff 2e       	mov	r15, r31
    1680:	f0 2d       	mov	r31, r0
		a=7000;
		lcd_st7565r_ClrScr(LCD_PIXEL_CLR);
		
	while (1)
	{
		if(a++>6000)		
    1682:	01 37       	cpi	r16, 0x71	; 113
    1684:	97 e1       	ldi	r25, 0x17	; 23
    1686:	19 07       	cpc	r17, r25
    1688:	1c f4       	brge	.+6      	; 0x1690 <main+0x7b2>
    168a:	0f 5f       	subi	r16, 0xFF	; 255
    168c:	1f 4f       	sbci	r17, 0xFF	; 255
    168e:	34 c0       	rjmp	.+104    	; 0x16f8 <main+0x81a>
		{
			cmd = DS1621_CFG;
    1690:	f9 8a       	std	Y+17, r15	; 0x11
			inf=TWIM_ReadBuf( &TWIC, DS1621_ADDR, &cmd, 1, buf, 1 );
    1692:	ee 24       	eor	r14, r14
    1694:	e3 94       	inc	r14
    1696:	8e 01       	movw	r16, r28
    1698:	0e 5e       	subi	r16, 0xEE	; 238
    169a:	1f 4f       	sbci	r17, 0xFF	; 255
    169c:	21 e0       	ldi	r18, 0x01	; 1
    169e:	ae 01       	movw	r20, r28
    16a0:	4f 5e       	subi	r20, 0xEF	; 239
    16a2:	5f 4f       	sbci	r21, 0xFF	; 255
    16a4:	6f e4       	ldi	r22, 0x4F	; 79
    16a6:	80 e8       	ldi	r24, 0x80	; 128
    16a8:	94 e0       	ldi	r25, 0x04	; 4
    16aa:	0e 94 0c 0e 	call	0x1c18	; 0x1c18 <TWIM_ReadBuf>
    16ae:	18 2f       	mov	r17, r24
    16b0:	68 2e       	mov	r6, r24
    16b2:	88 0f       	add	r24, r24
    16b4:	77 08       	sbc	r7, r7
			sprintf( txt1, "cfg%3x", (uint16_t) buf[0]);
    16b6:	8a 89       	ldd	r24, Y+18	; 0x12
    16b8:	1f 92       	push	r1
    16ba:	8f 93       	push	r24
    16bc:	27 e4       	ldi	r18, 0x47	; 71
    16be:	3f e2       	ldi	r19, 0x2F	; 47
    16c0:	3f 93       	push	r19
    16c2:	2f 93       	push	r18
    16c4:	9f 92       	push	r9
    16c6:	8f 92       	push	r8
    16c8:	0e 94 8b 10 	call	0x2116	; 0x2116 <sprintf>
			lcd_st7565r_GotoTextXY( 0, 10 );       
    16cc:	6a e0       	ldi	r22, 0x0A	; 10
    16ce:	80 e0       	ldi	r24, 0x00	; 0
    16d0:	0e 94 2c 03 	call	0x658	; 0x658 <lcd_st7565r_GotoTextXY>
			lcd_st7565r_DrawText( txt1, LCD_PIXEL_SET );
    16d4:	61 e0       	ldi	r22, 0x01	; 1
    16d6:	c4 01       	movw	r24, r8
    16d8:	0e 94 58 04 	call	0x8b0	; 0x8b0 <lcd_st7565r_DrawText>
			a=0;
			termostat();
    16dc:	14 01       	movw	r2, r8
    16de:	0e 94 f1 06 	call	0xde2	; 0xde2 <termostat.5239>
			error(inf);
    16e2:	81 2f       	mov	r24, r17
    16e4:	0e 94 1f 07 	call	0xe3e	; 0xe3e <error.5242>
    16e8:	0f 90       	pop	r0
    16ea:	0f 90       	pop	r0
    16ec:	0f 90       	pop	r0
    16ee:	0f 90       	pop	r0
    16f0:	0f 90       	pop	r0
    16f2:	0f 90       	pop	r0
			cmd = DS1621_CFG;
			inf=TWIM_ReadBuf( &TWIC, DS1621_ADDR, &cmd, 1, buf, 1 );
			sprintf( txt1, "cfg%3x", (uint16_t) buf[0]);
			lcd_st7565r_GotoTextXY( 0, 10 );       
			lcd_st7565r_DrawText( txt1, LCD_PIXEL_SET );
			a=0;
    16f4:	00 e0       	ldi	r16, 0x00	; 0
    16f6:	10 e0       	ldi	r17, 0x00	; 0
			termostat();
			error(inf);
		}
		
		if (inf<0) //powrt do menu po bdzie
    16f8:	77 20       	and	r7, r7
    16fa:	9c f4       	brge	.+38     	; 0x1722 <main+0x844>
		{
			sprintf( txt1, "              ");
    16fc:	8f e0       	ldi	r24, 0x0F	; 15
    16fe:	e8 e3       	ldi	r30, 0x38	; 56
    1700:	ff e2       	ldi	r31, 0x2F	; 47
    1702:	d4 01       	movw	r26, r8
    1704:	01 90       	ld	r0, Z+
    1706:	0d 92       	st	X+, r0
    1708:	8a 95       	dec	r24
    170a:	e1 f7       	brne	.-8      	; 0x1704 <main+0x826>
			lcd_st7565r_GotoTextXY( 0, 10 );
    170c:	6a e0       	ldi	r22, 0x0A	; 10
    170e:	80 e0       	ldi	r24, 0x00	; 0
    1710:	0e 94 2c 03 	call	0x658	; 0x658 <lcd_st7565r_GotoTextXY>
			lcd_st7565r_DrawText( txt1, LCD_PIXEL_SET );
    1714:	61 e0       	ldi	r22, 0x01	; 1
    1716:	c4 01       	movw	r24, r8
    1718:	0e 94 58 04 	call	0x8b0	; 0x8b0 <lcd_st7565r_DrawText>
			nz=0;
    171c:	1a 8e       	std	Y+26, r1	; 0x1a
    171e:	1b 8e       	std	Y+27, r1	; 0x1b
			break;
    1720:	89 c1       	rjmp	.+786    	; 0x1a34 <main+0xb56>
		}
		if (STLED316_Buts_Read( ) == BACK)
    1722:	0e 94 a8 01 	call	0x350	; 0x350 <STLED316_Buts_Read>
    1726:	81 15       	cp	r24, r1
    1728:	90 44       	sbci	r25, 0x40	; 64
    172a:	09 f0       	breq	.+2      	; 0x172e <main+0x850>
    172c:	aa cf       	rjmp	.-172    	; 0x1682 <main+0x7a4>
    172e:	82 c1       	rjmp	.+772    	; 0x1a34 <main+0xb56>
    1730:	4f 88       	ldd	r4, Y+23	; 0x17
    1732:	58 8c       	ldd	r5, Y+24	; 0x18
		}
		
	}
	}

	if ((m==4) && ((ButREdge & OK) != 0))           //Ustaw THz
    1734:	89 8d       	ldd	r24, Y+25	; 0x19
    1736:	84 30       	cpi	r24, 0x04	; 4
    1738:	09 f0       	breq	.+2      	; 0x173c <main+0x85e>
    173a:	c1 c0       	rjmp	.+386    	; 0x18be <main+0x9e0>
    173c:	c6 fe       	sbrs	r12, 6
    173e:	81 c1       	rjmp	.+770    	; 0x1a42 <main+0xb64>
	{lcd_st7565r_ClrScr(LCD_PIXEL_CLR);
    1740:	80 e0       	ldi	r24, 0x00	; 0
    1742:	0e 94 e7 02 	call	0x5ce	; 0x5ce <lcd_st7565r_ClrScr>
    1746:	de 8c       	ldd	r13, Y+30	; 0x1e
    1748:	ef 8c       	ldd	r14, Y+31	; 0x1f
										
		if ((ButREdge & OK) != 0)
		{
			if (Thz >=0)
			{	uint8_t tabTH[3];
				tabTH[0] = DS1621_TH;          
    174a:	0f 2e       	mov	r0, r31
    174c:	f1 ea       	ldi	r31, 0xA1	; 161
    174e:	cf 2e       	mov	r12, r31
    1750:	f0 2d       	mov	r31, r0
				tabTH[1] = Thz / 10;
				tabTH[2] = (Thz % 10) < 5 ? 0 : 0x80;
    1752:	df 8a       	std	Y+23, r13	; 0x17
    1754:	e8 a2       	std	Y+32, r14	; 0x20
    1756:	e9 a0       	ldd	r14, Y+33	; 0x21
    1758:	fa a0       	ldd	r15, Y+34	; 0x22
	if ((m==4) && ((ButREdge & OK) != 0))           //Ustaw THz
	{lcd_st7565r_ClrScr(LCD_PIXEL_CLR);
	
	while (1)
{
		But0 = STLED316_Buts_Read( );
    175a:	0e 94 a8 01 	call	0x350	; 0x350 <STLED316_Buts_Read>
    175e:	2c 01       	movw	r4, r24
		ButREdge = ~But2 & But0;
    1760:	87 01       	movw	r16, r14
    1762:	00 95       	com	r16
    1764:	10 95       	com	r17
    1766:	08 23       	and	r16, r24
    1768:	19 23       	and	r17, r25
		if((ButREdge & UP) != 0)		
    176a:	07 ff       	sbrs	r16, 7
    176c:	0f c0       	rjmp	.+30     	; 0x178c <main+0x8ae>
    176e:	95 e0       	ldi	r25, 0x05	; 5
    1770:	a9 0e       	add	r10, r25
    1772:	b1 1c       	adc	r11, r1
    1774:	23 ee       	ldi	r18, 0xE3	; 227
    1776:	a2 16       	cp	r10, r18
    1778:	24 e0       	ldi	r18, 0x04	; 4
    177a:	b2 06       	cpc	r11, r18
    177c:	3c f0       	brlt	.+14     	; 0x178c <main+0x8ae>
    177e:	0f 2e       	mov	r0, r31
    1780:	f2 ee       	ldi	r31, 0xE2	; 226
    1782:	af 2e       	mov	r10, r31
    1784:	f0 2d       	mov	r31, r0
    1786:	68 94       	set
    1788:	bb 24       	eor	r11, r11
    178a:	b2 f8       	bld	r11, 2
			if (Thz>1250)
			{	Thz = 1250;	}
		}
				
			
		if((ButREdge & DOWN) != 0)		
    178c:	11 23       	and	r17, r17
    178e:	54 f4       	brge	.+20     	; 0x17a4 <main+0x8c6>
		{	Thz-=5;
    1790:	c5 01       	movw	r24, r10
    1792:	05 97       	sbiw	r24, 0x05	; 5
    1794:	af 88       	ldd	r10, Y+23	; 0x17
    1796:	b8 a0       	ldd	r11, Y+32	; 0x20
    1798:	4e 8d       	ldd	r20, Y+30	; 0x1e
    179a:	5f 8d       	ldd	r21, Y+31	; 0x1f
    179c:	48 17       	cp	r20, r24
    179e:	59 07       	cpc	r21, r25
    17a0:	0c f4       	brge	.+2      	; 0x17a4 <main+0x8c6>
    17a2:	5c 01       	movw	r10, r24
			if (Thz<Tlz)
			{	Thz = Tlz;	}
		}
		if((STLED316_Buts_Read( ) & S5 ) != 0)
    17a4:	0e 94 a8 01 	call	0x350	; 0x350 <STLED316_Buts_Read>
    17a8:	84 ff       	sbrs	r24, 4
    17aa:	0f c0       	rjmp	.+30     	; 0x17ca <main+0x8ec>
    17ac:	55 e0       	ldi	r21, 0x05	; 5
    17ae:	a5 0e       	add	r10, r21
    17b0:	b1 1c       	adc	r11, r1
    17b2:	83 ee       	ldi	r24, 0xE3	; 227
    17b4:	a8 16       	cp	r10, r24
    17b6:	84 e0       	ldi	r24, 0x04	; 4
    17b8:	b8 06       	cpc	r11, r24
    17ba:	3c f0       	brlt	.+14     	; 0x17ca <main+0x8ec>
    17bc:	0f 2e       	mov	r0, r31
    17be:	f2 ee       	ldi	r31, 0xE2	; 226
    17c0:	af 2e       	mov	r10, r31
    17c2:	f0 2d       	mov	r31, r0
    17c4:	68 94       	set
    17c6:	bb 24       	eor	r11, r11
    17c8:	b2 f8       	bld	r11, 2
				Thz+=5;
				if (Thz>1250)
				{	Thz = 1250;	}
		}
						
		if((STLED316_Buts_Read( ) & S13 ) != 0)
    17ca:	0e 94 a8 01 	call	0x350	; 0x350 <STLED316_Buts_Read>
    17ce:	94 ff       	sbrs	r25, 4
    17d0:	0a c0       	rjmp	.+20     	; 0x17e6 <main+0x908>
		{
			
				Thz-=5;
    17d2:	c5 01       	movw	r24, r10
    17d4:	05 97       	sbiw	r24, 0x05	; 5
    17d6:	af 88       	ldd	r10, Y+23	; 0x17
    17d8:	b8 a0       	ldd	r11, Y+32	; 0x20
    17da:	2e 8d       	ldd	r18, Y+30	; 0x1e
    17dc:	3f 8d       	ldd	r19, Y+31	; 0x1f
    17de:	28 17       	cp	r18, r24
    17e0:	39 07       	cpc	r19, r25
    17e2:	0c f4       	brge	.+2      	; 0x17e6 <main+0x908>
    17e4:	5c 01       	movw	r10, r24
				if (Thz<Tlz)
				{	Thz = Tlz;	}
		}
		
			if (Thz >=0)
    17e6:	bb 20       	and	r11, r11
    17e8:	0c f4       	brge	.+2      	; 0x17ec <main+0x90e>
    17ea:	4a c0       	rjmp	.+148    	; 0x1880 <main+0x9a2>
			{
			sprintf( txt1, "Thz = %3d.%1d", (Thz / 10), (abs( Thz ) % 10));
    17ec:	c5 01       	movw	r24, r10
    17ee:	6a e0       	ldi	r22, 0x0A	; 10
    17f0:	70 e0       	ldi	r23, 0x00	; 0
    17f2:	0e 94 41 10 	call	0x2082	; 0x2082 <__divmodhi4>
    17f6:	d6 2e       	mov	r13, r22
    17f8:	27 2f       	mov	r18, r23
    17fa:	c5 01       	movw	r24, r10
    17fc:	bb 20       	and	r11, r11
    17fe:	24 f4       	brge	.+8      	; 0x1808 <main+0x92a>
    1800:	88 27       	eor	r24, r24
    1802:	99 27       	eor	r25, r25
    1804:	8a 19       	sub	r24, r10
    1806:	9b 09       	sbc	r25, r11
    1808:	6a e0       	ldi	r22, 0x0A	; 10
    180a:	70 e0       	ldi	r23, 0x00	; 0
    180c:	0e 94 41 10 	call	0x2082	; 0x2082 <__divmodhi4>
    1810:	9f 93       	push	r25
    1812:	8f 93       	push	r24
    1814:	2f 93       	push	r18
    1816:	df 92       	push	r13
    1818:	4e e4       	ldi	r20, 0x4E	; 78
    181a:	5f e2       	ldi	r21, 0x2F	; 47
    181c:	5f 93       	push	r21
    181e:	4f 93       	push	r20
    1820:	9f 92       	push	r9
    1822:	8f 92       	push	r8
    1824:	0e 94 8b 10 	call	0x2116	; 0x2116 <sprintf>
			lcd_st7565r_GotoTextXY( 0, 10 );
    1828:	6a e0       	ldi	r22, 0x0A	; 10
    182a:	80 e0       	ldi	r24, 0x00	; 0
    182c:	0e 94 2c 03 	call	0x658	; 0x658 <lcd_st7565r_GotoTextXY>
			lcd_st7565r_DrawText( txt1, LCD_PIXEL_SET );
    1830:	61 e0       	ldi	r22, 0x01	; 1
    1832:	c4 01       	movw	r24, r8
    1834:	0e 94 58 04 	call	0x8b0	; 0x8b0 <lcd_st7565r_DrawText>
			termostat();
    1838:	14 01       	movw	r2, r8
    183a:	0e 94 f1 06 	call	0xde2	; 0xde2 <termostat.5239>
			}
										
		if ((ButREdge & OK) != 0)
    183e:	cd bf       	out	0x3d, r28	; 61
    1840:	de bf       	out	0x3e, r29	; 62
    1842:	06 ff       	sbrs	r16, 6
    1844:	1d c0       	rjmp	.+58     	; 0x1880 <main+0x9a2>
		{
			if (Thz >=0)
			{	uint8_t tabTH[3];
				tabTH[0] = DS1621_TH;          
    1846:	cc 8a       	std	Y+20, r12	; 0x14
				tabTH[1] = Thz / 10;
    1848:	dd 8a       	std	Y+21, r13	; 0x15
				tabTH[2] = (Thz % 10) < 5 ? 0 : 0x80;
    184a:	c5 01       	movw	r24, r10
    184c:	6a e0       	ldi	r22, 0x0A	; 10
    184e:	70 e0       	ldi	r23, 0x00	; 0
    1850:	0e 94 41 10 	call	0x2082	; 0x2082 <__divmodhi4>
    1854:	05 97       	sbiw	r24, 0x05	; 5
    1856:	14 f0       	brlt	.+4      	; 0x185c <main+0x97e>
    1858:	80 e8       	ldi	r24, 0x80	; 128
    185a:	01 c0       	rjmp	.+2      	; 0x185e <main+0x980>
    185c:	80 e0       	ldi	r24, 0x00	; 0
    185e:	8e 8b       	std	Y+22, r24	; 0x16
				inf=TWIM_WriteBuf( &TWIC, DS1621_ADDR, tabTH, 3 );
    1860:	23 e0       	ldi	r18, 0x03	; 3
    1862:	ae 01       	movw	r20, r28
    1864:	4c 5e       	subi	r20, 0xEC	; 236
    1866:	5f 4f       	sbci	r21, 0xFF	; 255
    1868:	6f e4       	ldi	r22, 0x4F	; 79
    186a:	80 e8       	ldi	r24, 0x80	; 128
    186c:	94 e0       	ldi	r25, 0x04	; 4
    186e:	0e 94 dd 0d 	call	0x1bba	; 0x1bba <TWIM_WriteBuf>
    1872:	68 2e       	mov	r6, r24
    1874:	08 2e       	mov	r0, r24
    1876:	00 0c       	add	r0, r0
    1878:	77 08       	sbc	r7, r7
				error(inf);
    187a:	14 01       	movw	r2, r8
    187c:	0e 94 1f 07 	call	0xe3e	; 0xe3e <error.5242>
			}
		}		
		
		if (inf<0) //powrt do menu po bdzie
    1880:	77 20       	and	r7, r7
    1882:	ac f4       	brge	.+42     	; 0x18ae <main+0x9d0>
    1884:	e9 a2       	std	Y+33, r14	; 0x21
    1886:	fa a2       	std	Y+34, r15	; 0x22
		{
			sprintf( txt1, "              ");
    1888:	8f e0       	ldi	r24, 0x0F	; 15
    188a:	e8 e3       	ldi	r30, 0x38	; 56
    188c:	ff e2       	ldi	r31, 0x2F	; 47
    188e:	d4 01       	movw	r26, r8
    1890:	01 90       	ld	r0, Z+
    1892:	0d 92       	st	X+, r0
    1894:	8a 95       	dec	r24
    1896:	e1 f7       	brne	.-8      	; 0x1890 <main+0x9b2>
			lcd_st7565r_GotoTextXY( 0, 10 );
    1898:	6a e0       	ldi	r22, 0x0A	; 10
    189a:	80 e0       	ldi	r24, 0x00	; 0
    189c:	0e 94 2c 03 	call	0x658	; 0x658 <lcd_st7565r_GotoTextXY>
			lcd_st7565r_DrawText( txt1, LCD_PIXEL_SET );
    18a0:	61 e0       	ldi	r22, 0x01	; 1
    18a2:	c4 01       	movw	r24, r8
    18a4:	0e 94 58 04 	call	0x8b0	; 0x8b0 <lcd_st7565r_DrawText>
			nz=0;
    18a8:	1a 8e       	std	Y+26, r1	; 0x1a
    18aa:	1b 8e       	std	Y+27, r1	; 0x1b
			break;
    18ac:	ca c0       	rjmp	.+404    	; 0x1a42 <main+0xb64>
		}
		
		But2=But0;


		if (STLED316_Buts_Read( ) == BACK)
    18ae:	0e 94 a8 01 	call	0x350	; 0x350 <STLED316_Buts_Read>
	if ((m==4) && ((ButREdge & OK) != 0))           //Ustaw THz
	{lcd_st7565r_ClrScr(LCD_PIXEL_CLR);
	
	while (1)
{
		But0 = STLED316_Buts_Read( );
    18b2:	72 01       	movw	r14, r4
		}
		
		But2=But0;


		if (STLED316_Buts_Read( ) == BACK)
    18b4:	81 15       	cp	r24, r1
    18b6:	90 44       	sbci	r25, 0x40	; 64
    18b8:	09 f0       	breq	.+2      	; 0x18bc <main+0x9de>
    18ba:	4f cf       	rjmp	.-354    	; 0x175a <main+0x87c>
    18bc:	c0 c0       	rjmp	.+384    	; 0x1a3e <main+0xb60>
    18be:	0a 8d       	ldd	r16, Y+26	; 0x1a
    18c0:	1b 8d       	ldd	r17, Y+27	; 0x1b
		{		break;		}
}
	}
				
	if ((m==5) && ((ButREdge & OK) != 0))  //ustaw TL
    18c2:	49 8d       	ldd	r20, Y+25	; 0x19
    18c4:	45 30       	cpi	r20, 0x05	; 5
    18c6:	09 f0       	breq	.+2      	; 0x18ca <main+0x9ec>
    18c8:	aa c0       	rjmp	.+340    	; 0x1a1e <main+0xb40>
    18ca:	c6 fe       	sbrs	r12, 6
    18cc:	a8 c0       	rjmp	.+336    	; 0x1a1e <main+0xb40>
	{lcd_st7565r_ClrScr(LCD_PIXEL_CLR);
    18ce:	80 e0       	ldi	r24, 0x00	; 0
    18d0:	0e 94 e7 02 	call	0x5ce	; 0x5ce <lcd_st7565r_ClrScr>
    18d4:	af 8a       	std	Y+23, r10	; 0x17
			if ((ButREdge & OK) != 0)
			{
				uint8_t tabTL[3];
				tabTL[0] = DS1621_TL;          
				tabTL[1] = Tlz / 10;
				tabTL[2] = (Tlz % 10) < 5 ? 0 : 0x80;
    18d6:	ee 8c       	ldd	r14, Y+30	; 0x1e
    18d8:	ff 8c       	ldd	r15, Y+31	; 0x1f
    18da:	0a 8f       	std	Y+26, r16	; 0x1a
    18dc:	1b 8f       	std	Y+27, r17	; 0x1b
    18de:	0b 2d       	mov	r16, r11
				
	if ((m==5) && ((ButREdge & OK) != 0))  //ustaw TL
	{lcd_st7565r_ClrScr(LCD_PIXEL_CLR);
		while (1)
		{
			But0 = STLED316_Buts_Read( );
    18e0:	0e 94 a8 01 	call	0x350	; 0x350 <STLED316_Buts_Read>
    18e4:	2c 01       	movw	r4, r24
			ButREdge = ~But3 & But0;
    18e6:	cc 8c       	ldd	r12, Y+28	; 0x1c
    18e8:	dd 8c       	ldd	r13, Y+29	; 0x1d
    18ea:	c0 94       	com	r12
    18ec:	d0 94       	com	r13
    18ee:	c8 22       	and	r12, r24
    18f0:	d9 22       	and	r13, r25
			
			if((ButREdge & UP) != 0)		
    18f2:	c7 fe       	sbrs	r12, 7
    18f4:	08 c0       	rjmp	.+16     	; 0x1906 <main+0xa28>
			{	Tlz+=5;
    18f6:	c7 01       	movw	r24, r14
    18f8:	05 96       	adiw	r24, 0x05	; 5
    18fa:	ef 88       	ldd	r14, Y+23	; 0x17
    18fc:	f0 2e       	mov	r15, r16
    18fe:	8a 15       	cp	r24, r10
    1900:	9b 05       	cpc	r25, r11
    1902:	0c f4       	brge	.+2      	; 0x1906 <main+0xa28>
    1904:	7c 01       	movw	r14, r24
				if (Tlz>Thz)
				{  Tlz = Thz;	}
			}
			if((ButREdge & DOWN) != 0)		
    1906:	dd 20       	and	r13, r13
    1908:	34 f4       	brge	.+12     	; 0x1916 <main+0xa38>
    190a:	55 e0       	ldi	r21, 0x05	; 5
    190c:	e5 1a       	sub	r14, r21
    190e:	f1 08       	sbc	r15, r1
    1910:	12 f4       	brpl	.+4      	; 0x1916 <main+0xa38>
    1912:	e1 2c       	mov	r14, r1
    1914:	f1 2c       	mov	r15, r1
			{	Tlz-=5;
				if (Tlz<0)
				{	Tlz = 0;	}
			}			
				if((STLED316_Buts_Read( ) & UUP ) != 0)
    1916:	0e 94 a8 01 	call	0x350	; 0x350 <STLED316_Buts_Read>
    191a:	84 ff       	sbrs	r24, 4
    191c:	08 c0       	rjmp	.+16     	; 0x192e <main+0xa50>
				{
					Tlz+=5;
    191e:	c7 01       	movw	r24, r14
    1920:	05 96       	adiw	r24, 0x05	; 5
    1922:	ef 88       	ldd	r14, Y+23	; 0x17
    1924:	f0 2e       	mov	r15, r16
    1926:	8a 15       	cp	r24, r10
    1928:	9b 05       	cpc	r25, r11
    192a:	0c f4       	brge	.+2      	; 0x192e <main+0xa50>
    192c:	7c 01       	movw	r14, r24
					if (Tlz>Thz)
					{  Tlz = Thz;	}
				}
				
				if((STLED316_Buts_Read( ) & DDOWN ) != 0)
    192e:	0e 94 a8 01 	call	0x350	; 0x350 <STLED316_Buts_Read>
    1932:	94 ff       	sbrs	r25, 4
    1934:	06 c0       	rjmp	.+12     	; 0x1942 <main+0xa64>
    1936:	85 e0       	ldi	r24, 0x05	; 5
    1938:	e8 1a       	sub	r14, r24
    193a:	f1 08       	sbc	r15, r1
    193c:	12 f4       	brpl	.+4      	; 0x1942 <main+0xa64>
    193e:	e1 2c       	mov	r14, r1
    1940:	f1 2c       	mov	r15, r1
					
					Tlz-=5;
					if (Tlz<0)
					{	Tlz = 0;	}
				}
			sprintf( txt1, "Tlz =%3d.%1d", (Tlz / 10), (abs( Tlz ) % 10));
    1942:	c7 01       	movw	r24, r14
    1944:	6a e0       	ldi	r22, 0x0A	; 10
    1946:	70 e0       	ldi	r23, 0x00	; 0
    1948:	0e 94 41 10 	call	0x2082	; 0x2082 <__divmodhi4>
    194c:	16 2f       	mov	r17, r22
    194e:	27 2f       	mov	r18, r23
    1950:	c7 01       	movw	r24, r14
    1952:	ff 20       	and	r15, r15
    1954:	24 f4       	brge	.+8      	; 0x195e <main+0xa80>
    1956:	88 27       	eor	r24, r24
    1958:	99 27       	eor	r25, r25
    195a:	8e 19       	sub	r24, r14
    195c:	9f 09       	sbc	r25, r15
    195e:	6a e0       	ldi	r22, 0x0A	; 10
    1960:	70 e0       	ldi	r23, 0x00	; 0
    1962:	0e 94 41 10 	call	0x2082	; 0x2082 <__divmodhi4>
    1966:	9f 93       	push	r25
    1968:	8f 93       	push	r24
    196a:	2f 93       	push	r18
    196c:	1f 93       	push	r17
    196e:	2c e5       	ldi	r18, 0x5C	; 92
    1970:	3f e2       	ldi	r19, 0x2F	; 47
    1972:	3f 93       	push	r19
    1974:	2f 93       	push	r18
    1976:	9f 92       	push	r9
    1978:	8f 92       	push	r8
    197a:	0e 94 8b 10 	call	0x2116	; 0x2116 <sprintf>
			lcd_st7565r_GotoTextXY( 0, 10 );
    197e:	6a e0       	ldi	r22, 0x0A	; 10
    1980:	80 e0       	ldi	r24, 0x00	; 0
    1982:	0e 94 2c 03 	call	0x658	; 0x658 <lcd_st7565r_GotoTextXY>
			lcd_st7565r_DrawText( txt1, LCD_PIXEL_SET );
    1986:	61 e0       	ldi	r22, 0x01	; 1
    1988:	c4 01       	movw	r24, r8
    198a:	0e 94 58 04 	call	0x8b0	; 0x8b0 <lcd_st7565r_DrawText>
			termostat();
    198e:	14 01       	movw	r2, r8
    1990:	0e 94 f1 06 	call	0xde2	; 0xde2 <termostat.5239>
			
			if ((ButREdge & OK) != 0)
    1994:	cd bf       	out	0x3d, r28	; 61
    1996:	de bf       	out	0x3e, r29	; 62
    1998:	c6 fe       	sbrs	r12, 6
    199a:	1e c0       	rjmp	.+60     	; 0x19d8 <main+0xafa>
			{
				uint8_t tabTL[3];
				tabTL[0] = DS1621_TL;          
    199c:	92 ea       	ldi	r25, 0xA2	; 162
    199e:	9c 8b       	std	Y+20, r25	; 0x14
				tabTL[1] = Tlz / 10;
    19a0:	1d 8b       	std	Y+21, r17	; 0x15
				tabTL[2] = (Tlz % 10) < 5 ? 0 : 0x80;
    19a2:	c7 01       	movw	r24, r14
    19a4:	6a e0       	ldi	r22, 0x0A	; 10
    19a6:	70 e0       	ldi	r23, 0x00	; 0
    19a8:	0e 94 41 10 	call	0x2082	; 0x2082 <__divmodhi4>
    19ac:	05 97       	sbiw	r24, 0x05	; 5
    19ae:	14 f0       	brlt	.+4      	; 0x19b4 <main+0xad6>
    19b0:	80 e8       	ldi	r24, 0x80	; 128
    19b2:	01 c0       	rjmp	.+2      	; 0x19b6 <main+0xad8>
    19b4:	80 e0       	ldi	r24, 0x00	; 0
    19b6:	8e 8b       	std	Y+22, r24	; 0x16
				inf=TWIM_WriteBuf( &TWIC, DS1621_ADDR, tabTL, 3 );
    19b8:	23 e0       	ldi	r18, 0x03	; 3
    19ba:	ae 01       	movw	r20, r28
    19bc:	4c 5e       	subi	r20, 0xEC	; 236
    19be:	5f 4f       	sbci	r21, 0xFF	; 255
    19c0:	6f e4       	ldi	r22, 0x4F	; 79
    19c2:	80 e8       	ldi	r24, 0x80	; 128
    19c4:	94 e0       	ldi	r25, 0x04	; 4
    19c6:	0e 94 dd 0d 	call	0x1bba	; 0x1bba <TWIM_WriteBuf>
    19ca:	68 2e       	mov	r6, r24
    19cc:	08 2e       	mov	r0, r24
    19ce:	00 0c       	add	r0, r0
    19d0:	77 08       	sbc	r7, r7
				error(inf);
    19d2:	14 01       	movw	r2, r8
    19d4:	0e 94 1f 07 	call	0xe3e	; 0xe3e <error.5242>
			}
			
		if (inf<0) //powrt do menu po bdzie
    19d8:	77 20       	and	r7, r7
    19da:	ac f4       	brge	.+42     	; 0x1a06 <main+0xb28>
    19dc:	ee 8e       	std	Y+30, r14	; 0x1e
    19de:	ff 8e       	std	Y+31, r15	; 0x1f
		{
			sprintf( txt1, "              ");
    19e0:	8f e0       	ldi	r24, 0x0F	; 15
    19e2:	e8 e3       	ldi	r30, 0x38	; 56
    19e4:	ff e2       	ldi	r31, 0x2F	; 47
    19e6:	d4 01       	movw	r26, r8
    19e8:	01 90       	ld	r0, Z+
    19ea:	0d 92       	st	X+, r0
    19ec:	8a 95       	dec	r24
    19ee:	e1 f7       	brne	.-8      	; 0x19e8 <main+0xb0a>
			lcd_st7565r_GotoTextXY( 0, 10 );
    19f0:	6a e0       	ldi	r22, 0x0A	; 10
    19f2:	80 e0       	ldi	r24, 0x00	; 0
    19f4:	0e 94 2c 03 	call	0x658	; 0x658 <lcd_st7565r_GotoTextXY>
			lcd_st7565r_DrawText( txt1, LCD_PIXEL_SET );
    19f8:	61 e0       	ldi	r22, 0x01	; 1
    19fa:	c4 01       	movw	r24, r8
    19fc:	0e 94 58 04 	call	0x8b0	; 0x8b0 <lcd_st7565r_DrawText>
			nz=0;
    1a00:	00 e0       	ldi	r16, 0x00	; 0
    1a02:	10 e0       	ldi	r17, 0x00	; 0
			break;
    1a04:	0c c0       	rjmp	.+24     	; 0x1a1e <main+0xb40>
		}
			
			But3=But0;
			
	if (STLED316_Buts_Read( ) == BACK)
    1a06:	0e 94 a8 01 	call	0x350	; 0x350 <STLED316_Buts_Read>
				
	if ((m==5) && ((ButREdge & OK) != 0))  //ustaw TL
	{lcd_st7565r_ClrScr(LCD_PIXEL_CLR);
		while (1)
		{
			But0 = STLED316_Buts_Read( );
    1a0a:	4c 8e       	std	Y+28, r4	; 0x1c
    1a0c:	5d 8e       	std	Y+29, r5	; 0x1d
			break;
		}
			
			But3=But0;
			
	if (STLED316_Buts_Read( ) == BACK)
    1a0e:	81 15       	cp	r24, r1
    1a10:	90 44       	sbci	r25, 0x40	; 64
    1a12:	09 f0       	breq	.+2      	; 0x1a16 <main+0xb38>
    1a14:	65 cf       	rjmp	.-310    	; 0x18e0 <main+0xa02>
    1a16:	ee 8e       	std	Y+30, r14	; 0x1e
    1a18:	ff 8e       	std	Y+31, r15	; 0x1f
    1a1a:	0a 8d       	ldd	r16, Y+26	; 0x1a
    1a1c:	1b 8d       	ldd	r17, Y+27	; 0x1b
		}
}
}		
					
	But1 = But0;
	PIT_Wait( );
    1a1e:	0e 94 8b 0d 	call	0x1b16	; 0x1b16 <PIT_Wait>
	
	}
    1a22:	05 cb       	rjmp	.-2550   	; 0x102e <main+0x150>
    1a24:	4f 88       	ldd	r4, Y+23	; 0x17
    1a26:	58 8c       	ldd	r5, Y+24	; 0x18
    1a28:	85 ce       	rjmp	.-758    	; 0x1734 <main+0x856>
    1a2a:	0a 8d       	ldd	r16, Y+26	; 0x1a
    1a2c:	1b 8d       	ldd	r17, Y+27	; 0x1b
    1a2e:	4f 88       	ldd	r4, Y+23	; 0x17
    1a30:	58 8c       	ldd	r5, Y+24	; 0x18
    1a32:	47 cf       	rjmp	.-370    	; 0x18c2 <main+0x9e4>
				
	if ((m==5) && ((ButREdge & OK) != 0))  //ustaw TL
	{lcd_st7565r_ClrScr(LCD_PIXEL_CLR);
		while (1)
		{
			But0 = STLED316_Buts_Read( );
    1a34:	0a 8d       	ldd	r16, Y+26	; 0x1a
    1a36:	1b 8d       	ldd	r17, Y+27	; 0x1b
    1a38:	4f 88       	ldd	r4, Y+23	; 0x17
    1a3a:	58 8c       	ldd	r5, Y+24	; 0x18
    1a3c:	f0 cf       	rjmp	.-32     	; 0x1a1e <main+0xb40>
	if ((m==4) && ((ButREdge & OK) != 0))           //Ustaw THz
	{lcd_st7565r_ClrScr(LCD_PIXEL_CLR);
	
	while (1)
{
		But0 = STLED316_Buts_Read( );
    1a3e:	49 a2       	std	Y+33, r4	; 0x21
    1a40:	5a a2       	std	Y+34, r5	; 0x22
				
	if ((m==5) && ((ButREdge & OK) != 0))  //ustaw TL
	{lcd_st7565r_ClrScr(LCD_PIXEL_CLR);
		while (1)
		{
			But0 = STLED316_Buts_Read( );
    1a42:	0a 8d       	ldd	r16, Y+26	; 0x1a
    1a44:	1b 8d       	ldd	r17, Y+27	; 0x1b
    1a46:	eb cf       	rjmp	.-42     	; 0x1a1e <main+0xb40>

00001a48 <GPIO_CfgPins>:
    1a48:	ef 92       	push	r14
    1a4a:	0f 93       	push	r16
    1a4c:	fc 01       	movw	r30, r24
    1a4e:	60 93 b0 00 	sts	0x00B0, r22	; 0x8000b0 <__TEXT_REGION_LENGTH__+0x7000b0>
    1a52:	4e 29       	or	r20, r14
    1a54:	40 8b       	std	Z+16, r20	; 0x10
    1a56:	22 23       	and	r18, r18
    1a58:	11 f0       	breq	.+4      	; 0x1a5e <GPIO_CfgPins+0x16>
    1a5a:	61 83       	std	Z+1, r22	; 0x01
    1a5c:	01 c0       	rjmp	.+2      	; 0x1a60 <GPIO_CfgPins+0x18>
    1a5e:	62 83       	std	Z+2, r22	; 0x02
    1a60:	00 23       	and	r16, r16
    1a62:	11 f0       	breq	.+4      	; 0x1a68 <GPIO_CfgPins+0x20>
    1a64:	65 83       	std	Z+5, r22	; 0x05
    1a66:	01 c0       	rjmp	.+2      	; 0x1a6a <GPIO_CfgPins+0x22>
    1a68:	66 83       	std	Z+6, r22	; 0x06
    1a6a:	0f 91       	pop	r16
    1a6c:	ef 90       	pop	r14
    1a6e:	08 95       	ret

00001a70 <CLK_SysClkSel>:
    1a70:	87 70       	andi	r24, 0x07	; 7
    1a72:	98 ed       	ldi	r25, 0xD8	; 216
    1a74:	94 bf       	out	0x34, r25	; 52
    1a76:	80 93 40 00 	sts	0x0040, r24	; 0x800040 <__TEXT_REGION_LENGTH__+0x700040>
    1a7a:	08 95       	ret

00001a7c <CLK_PerClkCfg>:
    1a7c:	8c 77       	andi	r24, 0x7C	; 124
    1a7e:	63 70       	andi	r22, 0x03	; 3
    1a80:	68 2b       	or	r22, r24
    1a82:	88 ed       	ldi	r24, 0xD8	; 216
    1a84:	84 bf       	out	0x34, r24	; 52
    1a86:	60 93 41 00 	sts	0x0041, r22	; 0x800041 <__TEXT_REGION_LENGTH__+0x700041>
    1a8a:	08 95       	ret

00001a8c <DFLL_RC32M_RefClkSel>:
    1a8c:	e0 e5       	ldi	r30, 0x50	; 80
    1a8e:	f0 e0       	ldi	r31, 0x00	; 0
    1a90:	96 81       	ldd	r25, Z+6	; 0x06
    1a92:	99 7f       	andi	r25, 0xF9	; 249
    1a94:	89 2b       	or	r24, r25
    1a96:	86 83       	std	Z+6, r24	; 0x06
    1a98:	08 95       	ret

00001a9a <OSC_TOSC32K_Start>:
    1a9a:	e0 ef       	ldi	r30, 0xF0	; 240
    1a9c:	f0 e0       	ldi	r31, 0x00	; 0
    1a9e:	80 81       	ld	r24, Z
    1aa0:	82 60       	ori	r24, 0x02	; 2
    1aa2:	80 83       	st	Z, r24
    1aa4:	88 ed       	ldi	r24, 0xD8	; 216
    1aa6:	84 bf       	out	0x34, r24	; 52
    1aa8:	81 e0       	ldi	r24, 0x01	; 1
    1aaa:	80 83       	st	Z, r24
    1aac:	80 81       	ld	r24, Z
    1aae:	84 60       	ori	r24, 0x04	; 4
    1ab0:	80 83       	st	Z, r24
    1ab2:	8f e1       	ldi	r24, 0x1F	; 31
    1ab4:	93 e0       	ldi	r25, 0x03	; 3
    1ab6:	01 97       	sbiw	r24, 0x01	; 1
    1ab8:	f1 f7       	brne	.-4      	; 0x1ab6 <OSC_TOSC32K_Start+0x1c>
    1aba:	00 c0       	rjmp	.+0      	; 0x1abc <OSC_TOSC32K_Start+0x22>
    1abc:	00 00       	nop
    1abe:	80 81       	ld	r24, Z
    1ac0:	88 60       	ori	r24, 0x08	; 8
    1ac2:	80 83       	st	Z, r24
    1ac4:	81 81       	ldd	r24, Z+1	; 0x01
    1ac6:	83 ff       	sbrs	r24, 3
    1ac8:	fd cf       	rjmp	.-6      	; 0x1ac4 <OSC_TOSC32K_Start+0x2a>
    1aca:	08 95       	ret

00001acc <DFLL_Cfg>:
    1acc:	fc 01       	movw	r30, r24
    1ace:	65 83       	std	Z+5, r22	; 0x05
    1ad0:	76 83       	std	Z+6, r23	; 0x06
    1ad2:	08 95       	ret

00001ad4 <PIT_Cfg>:
    1ad4:	80 93 71 31 	sts	0x3171, r24	; 0x803171 <pit_ClkSel>
    1ad8:	40 93 70 31 	sts	0x3170, r20	; 0x803170 <pit_IntCntMax>
    1adc:	10 92 6f 31 	sts	0x316F, r1	; 0x80316f <pit_IntCnt>
    1ae0:	e0 e0       	ldi	r30, 0x00	; 0
    1ae2:	fb e0       	ldi	r31, 0x0B	; 11
    1ae4:	10 82       	st	Z, r1
    1ae6:	11 82       	std	Z+1, r1	; 0x01
    1ae8:	13 82       	std	Z+3, r1	; 0x03
    1aea:	14 82       	std	Z+4, r1	; 0x04
    1aec:	81 e0       	ldi	r24, 0x01	; 1
    1aee:	80 87       	std	Z+8, r24	; 0x08
    1af0:	10 a2       	std	Z+32, r1	; 0x20
    1af2:	11 a2       	std	Z+33, r1	; 0x21
    1af4:	66 a3       	std	Z+38, r22	; 0x26
    1af6:	77 a3       	std	Z+39, r23	; 0x27
    1af8:	66 ab       	std	Z+54, r22	; 0x36
    1afa:	77 ab       	std	Z+55, r23	; 0x37
    1afc:	86 83       	std	Z+6, r24	; 0x06
    1afe:	17 82       	std	Z+7, r1	; 0x07
    1b00:	e0 ea       	ldi	r30, 0xA0	; 160
    1b02:	f0 e0       	ldi	r31, 0x00	; 0
    1b04:	82 81       	ldd	r24, Z+2	; 0x02
    1b06:	81 60       	ori	r24, 0x01	; 1
    1b08:	82 83       	std	Z+2, r24	; 0x02
    1b0a:	08 95       	ret

00001b0c <PIT_Start>:
    1b0c:	80 91 71 31 	lds	r24, 0x3171	; 0x803171 <pit_ClkSel>
    1b10:	80 93 00 0b 	sts	0x0B00, r24	; 0x800b00 <__TEXT_REGION_LENGTH__+0x700b00>
    1b14:	08 95       	ret

00001b16 <PIT_Wait>:
    1b16:	80 91 6e 31 	lds	r24, 0x316E	; 0x80316e <pit_Tick>
    1b1a:	88 23       	and	r24, r24
    1b1c:	e1 f3       	breq	.-8      	; 0x1b16 <PIT_Wait>
    1b1e:	80 91 6e 31 	lds	r24, 0x316E	; 0x80316e <pit_Tick>
    1b22:	81 50       	subi	r24, 0x01	; 1
    1b24:	80 93 6e 31 	sts	0x316E, r24	; 0x80316e <pit_Tick>
    1b28:	08 95       	ret

00001b2a <__vector_108>:
    1b2a:	1f 92       	push	r1
    1b2c:	0f 92       	push	r0
    1b2e:	0f b6       	in	r0, 0x3f	; 63
    1b30:	0f 92       	push	r0
    1b32:	11 24       	eor	r1, r1
    1b34:	8f 93       	push	r24
    1b36:	9f 93       	push	r25
    1b38:	80 91 6f 31 	lds	r24, 0x316F	; 0x80316f <pit_IntCnt>
    1b3c:	8f 5f       	subi	r24, 0xFF	; 255
    1b3e:	80 93 6f 31 	sts	0x316F, r24	; 0x80316f <pit_IntCnt>
    1b42:	90 91 70 31 	lds	r25, 0x3170	; 0x803170 <pit_IntCntMax>
    1b46:	89 17       	cp	r24, r25
    1b48:	38 f0       	brcs	.+14     	; 0x1b58 <__vector_108+0x2e>
    1b4a:	10 92 6f 31 	sts	0x316F, r1	; 0x80316f <pit_IntCnt>
    1b4e:	80 91 6e 31 	lds	r24, 0x316E	; 0x80316e <pit_Tick>
    1b52:	8f 5f       	subi	r24, 0xFF	; 255
    1b54:	80 93 6e 31 	sts	0x316E, r24	; 0x80316e <pit_Tick>
    1b58:	9f 91       	pop	r25
    1b5a:	8f 91       	pop	r24
    1b5c:	0f 90       	pop	r0
    1b5e:	0f be       	out	0x3f, r0	; 63
    1b60:	0f 90       	pop	r0
    1b62:	1f 90       	pop	r1
    1b64:	18 95       	reti

00001b66 <TWI_CfgPins>:
    1b66:	60 93 b0 00 	sts	0x00B0, r22	; 0x8000b0 <__TEXT_REGION_LENGTH__+0x7000b0>
    1b6a:	44 23       	and	r20, r20
    1b6c:	21 f0       	breq	.+8      	; 0x1b76 <TWI_CfgPins+0x10>
    1b6e:	28 e3       	ldi	r18, 0x38	; 56
    1b70:	fc 01       	movw	r30, r24
    1b72:	20 8b       	std	Z+16, r18	; 0x10
    1b74:	03 c0       	rjmp	.+6      	; 0x1b7c <TWI_CfgPins+0x16>
    1b76:	28 e2       	ldi	r18, 0x28	; 40
    1b78:	fc 01       	movw	r30, r24
    1b7a:	20 8b       	std	Z+16, r18	; 0x10
    1b7c:	fc 01       	movw	r30, r24
    1b7e:	61 83       	std	Z+1, r22	; 0x01
    1b80:	08 95       	ret

00001b82 <TWI_SetBaudRate>:
    1b82:	0f 93       	push	r16
    1b84:	1f 93       	push	r17
    1b86:	cf 93       	push	r28
    1b88:	df 93       	push	r29
    1b8a:	ec 01       	movw	r28, r24
    1b8c:	d9 01       	movw	r26, r18
    1b8e:	c8 01       	movw	r24, r16
    1b90:	9a 01       	movw	r18, r20
    1b92:	ab 01       	movw	r20, r22
    1b94:	22 0f       	add	r18, r18
    1b96:	33 1f       	adc	r19, r19
    1b98:	44 1f       	adc	r20, r20
    1b9a:	55 1f       	adc	r21, r21
    1b9c:	bc 01       	movw	r22, r24
    1b9e:	cd 01       	movw	r24, r26
    1ba0:	0e 94 55 10 	call	0x20aa	; 0x20aa <__udivmodsi4>
    1ba4:	da 01       	movw	r26, r20
    1ba6:	c9 01       	movw	r24, r18
    1ba8:	05 97       	sbiw	r24, 0x05	; 5
    1baa:	a1 09       	sbc	r26, r1
    1bac:	b1 09       	sbc	r27, r1
    1bae:	8d 83       	std	Y+5, r24	; 0x05
    1bb0:	df 91       	pop	r29
    1bb2:	cf 91       	pop	r28
    1bb4:	1f 91       	pop	r17
    1bb6:	0f 91       	pop	r16
    1bb8:	08 95       	ret

00001bba <TWIM_WriteBuf>:
    1bba:	fc 01       	movw	r30, r24
    1bbc:	86 2f       	mov	r24, r22
    1bbe:	90 e0       	ldi	r25, 0x00	; 0
    1bc0:	88 0f       	add	r24, r24
    1bc2:	99 1f       	adc	r25, r25
    1bc4:	86 83       	std	Z+6, r24	; 0x06
    1bc6:	94 81       	ldd	r25, Z+4	; 0x04
    1bc8:	96 ff       	sbrs	r25, 6
    1bca:	fd cf       	rjmp	.-6      	; 0x1bc6 <TWIM_WriteBuf+0xc>
    1bcc:	92 fd       	sbrc	r25, 2
    1bce:	20 c0       	rjmp	.+64     	; 0x1c10 <TWIM_WriteBuf+0x56>
    1bd0:	93 fd       	sbrc	r25, 3
    1bd2:	20 c0       	rjmp	.+64     	; 0x1c14 <TWIM_WriteBuf+0x5a>
    1bd4:	94 fd       	sbrc	r25, 4
    1bd6:	03 c0       	rjmp	.+6      	; 0x1bde <TWIM_WriteBuf+0x24>
    1bd8:	21 11       	cpse	r18, r1
    1bda:	06 c0       	rjmp	.+12     	; 0x1be8 <TWIM_WriteBuf+0x2e>
    1bdc:	14 c0       	rjmp	.+40     	; 0x1c06 <TWIM_WriteBuf+0x4c>
    1bde:	83 81       	ldd	r24, Z+3	; 0x03
    1be0:	83 60       	ori	r24, 0x03	; 3
    1be2:	83 83       	std	Z+3, r24	; 0x03
    1be4:	8f ef       	ldi	r24, 0xFF	; 255
    1be6:	08 95       	ret
    1be8:	a4 2f       	mov	r26, r20
    1bea:	b5 2f       	mov	r27, r21
    1bec:	30 e0       	ldi	r19, 0x00	; 0
    1bee:	9d 91       	ld	r25, X+
    1bf0:	97 83       	std	Z+7, r25	; 0x07
    1bf2:	94 81       	ldd	r25, Z+4	; 0x04
    1bf4:	96 ff       	sbrs	r25, 6
    1bf6:	fd cf       	rjmp	.-6      	; 0x1bf2 <TWIM_WriteBuf+0x38>
    1bf8:	90 71       	andi	r25, 0x10	; 16
    1bfa:	3f 5f       	subi	r19, 0xFF	; 255
    1bfc:	23 17       	cp	r18, r19
    1bfe:	19 f0       	breq	.+6      	; 0x1c06 <TWIM_WriteBuf+0x4c>
    1c00:	99 23       	and	r25, r25
    1c02:	a9 f3       	breq	.-22     	; 0x1bee <TWIM_WriteBuf+0x34>
    1c04:	23 2f       	mov	r18, r19
    1c06:	83 81       	ldd	r24, Z+3	; 0x03
    1c08:	83 60       	ori	r24, 0x03	; 3
    1c0a:	83 83       	std	Z+3, r24	; 0x03
    1c0c:	82 2f       	mov	r24, r18
    1c0e:	08 95       	ret
    1c10:	84 ef       	ldi	r24, 0xF4	; 244
    1c12:	08 95       	ret
    1c14:	85 ef       	ldi	r24, 0xF5	; 245
    1c16:	08 95       	ret

00001c18 <TWIM_ReadBuf>:
    1c18:	ef 92       	push	r14
    1c1a:	0f 93       	push	r16
    1c1c:	1f 93       	push	r17
    1c1e:	cf 93       	push	r28
    1c20:	df 93       	push	r29
    1c22:	fc 01       	movw	r30, r24
    1c24:	22 23       	and	r18, r18
    1c26:	29 f1       	breq	.+74     	; 0x1c72 <TWIM_ReadBuf+0x5a>
    1c28:	86 2f       	mov	r24, r22
    1c2a:	90 e0       	ldi	r25, 0x00	; 0
    1c2c:	88 0f       	add	r24, r24
    1c2e:	99 1f       	adc	r25, r25
    1c30:	86 83       	std	Z+6, r24	; 0x06
    1c32:	84 81       	ldd	r24, Z+4	; 0x04
    1c34:	86 ff       	sbrs	r24, 6
    1c36:	fd cf       	rjmp	.-6      	; 0x1c32 <TWIM_ReadBuf+0x1a>
    1c38:	82 fd       	sbrc	r24, 2
    1c3a:	5c c0       	rjmp	.+184    	; 0x1cf4 <TWIM_ReadBuf+0xdc>
    1c3c:	83 fd       	sbrc	r24, 3
    1c3e:	5c c0       	rjmp	.+184    	; 0x1cf8 <TWIM_ReadBuf+0xe0>
    1c40:	84 ff       	sbrs	r24, 4
    1c42:	05 c0       	rjmp	.+10     	; 0x1c4e <TWIM_ReadBuf+0x36>
    1c44:	83 81       	ldd	r24, Z+3	; 0x03
    1c46:	83 60       	ori	r24, 0x03	; 3
    1c48:	83 83       	std	Z+3, r24	; 0x03
    1c4a:	8f ef       	ldi	r24, 0xFF	; 255
    1c4c:	5a c0       	rjmp	.+180    	; 0x1d02 <TWIM_ReadBuf+0xea>
    1c4e:	da 01       	movw	r26, r20
    1c50:	21 50       	subi	r18, 0x01	; 1
    1c52:	82 2f       	mov	r24, r18
    1c54:	90 e0       	ldi	r25, 0x00	; 0
    1c56:	01 96       	adiw	r24, 0x01	; 1
    1c58:	48 0f       	add	r20, r24
    1c5a:	59 1f       	adc	r21, r25
    1c5c:	8d 91       	ld	r24, X+
    1c5e:	87 83       	std	Z+7, r24	; 0x07
    1c60:	84 81       	ldd	r24, Z+4	; 0x04
    1c62:	86 ff       	sbrs	r24, 6
    1c64:	fd cf       	rjmp	.-6      	; 0x1c60 <TWIM_ReadBuf+0x48>
    1c66:	80 71       	andi	r24, 0x10	; 16
    1c68:	a4 17       	cp	r26, r20
    1c6a:	b5 07       	cpc	r27, r21
    1c6c:	11 f0       	breq	.+4      	; 0x1c72 <TWIM_ReadBuf+0x5a>
    1c6e:	88 23       	and	r24, r24
    1c70:	a9 f3       	breq	.-22     	; 0x1c5c <TWIM_ReadBuf+0x44>
    1c72:	66 0f       	add	r22, r22
    1c74:	61 60       	ori	r22, 0x01	; 1
    1c76:	66 83       	std	Z+6, r22	; 0x06
    1c78:	84 81       	ldd	r24, Z+4	; 0x04
    1c7a:	98 2f       	mov	r25, r24
    1c7c:	90 7c       	andi	r25, 0xC0	; 192
    1c7e:	e1 f3       	breq	.-8      	; 0x1c78 <TWIM_ReadBuf+0x60>
    1c80:	86 ff       	sbrs	r24, 6
    1c82:	0b c0       	rjmp	.+22     	; 0x1c9a <TWIM_ReadBuf+0x82>
    1c84:	82 fd       	sbrc	r24, 2
    1c86:	3a c0       	rjmp	.+116    	; 0x1cfc <TWIM_ReadBuf+0xe4>
    1c88:	83 fd       	sbrc	r24, 3
    1c8a:	3a c0       	rjmp	.+116    	; 0x1d00 <TWIM_ReadBuf+0xe8>
    1c8c:	84 ff       	sbrs	r24, 4
    1c8e:	05 c0       	rjmp	.+10     	; 0x1c9a <TWIM_ReadBuf+0x82>
    1c90:	83 81       	ldd	r24, Z+3	; 0x03
    1c92:	83 60       	ori	r24, 0x03	; 3
    1c94:	83 83       	std	Z+3, r24	; 0x03
    1c96:	8f ef       	ldi	r24, 0xFF	; 255
    1c98:	34 c0       	rjmp	.+104    	; 0x1d02 <TWIM_ReadBuf+0xea>
    1c9a:	ea 94       	dec	r14
    1c9c:	a0 e8       	ldi	r26, 0x80	; 128
    1c9e:	b4 e0       	ldi	r27, 0x04	; 4
    1ca0:	12 96       	adiw	r26, 0x02	; 2
    1ca2:	8c 91       	ld	r24, X
    1ca4:	12 97       	sbiw	r26, 0x02	; 2
    1ca6:	81 60       	ori	r24, 0x01	; 1
    1ca8:	12 96       	adiw	r26, 0x02	; 2
    1caa:	8c 93       	st	X, r24
    1cac:	12 97       	sbiw	r26, 0x02	; 2
    1cae:	13 96       	adiw	r26, 0x03	; 3
    1cb0:	8c 91       	ld	r24, X
    1cb2:	13 97       	sbiw	r26, 0x03	; 3
    1cb4:	8b 7f       	andi	r24, 0xFB	; 251
    1cb6:	13 96       	adiw	r26, 0x03	; 3
    1cb8:	8c 93       	st	X, r24
    1cba:	80 e0       	ldi	r24, 0x00	; 0
    1cbc:	c0 e8       	ldi	r28, 0x80	; 128
    1cbe:	d4 e0       	ldi	r29, 0x04	; 4
    1cc0:	8e 15       	cp	r24, r14
    1cc2:	48 f4       	brcc	.+18     	; 0x1cd6 <TWIM_ReadBuf+0xbe>
    1cc4:	97 81       	ldd	r25, Z+7	; 0x07
    1cc6:	d8 01       	movw	r26, r16
    1cc8:	a8 0f       	add	r26, r24
    1cca:	b1 1d       	adc	r27, r1
    1ccc:	9c 93       	st	X, r25
    1cce:	94 81       	ldd	r25, Z+4	; 0x04
    1cd0:	99 23       	and	r25, r25
    1cd2:	ec f7       	brge	.-6      	; 0x1cce <TWIM_ReadBuf+0xb6>
    1cd4:	08 c0       	rjmp	.+16     	; 0x1ce6 <TWIM_ReadBuf+0xce>
    1cd6:	9b 81       	ldd	r25, Y+3	; 0x03
    1cd8:	94 60       	ori	r25, 0x04	; 4
    1cda:	9b 83       	std	Y+3, r25	; 0x03
    1cdc:	97 81       	ldd	r25, Z+7	; 0x07
    1cde:	d8 01       	movw	r26, r16
    1ce0:	a8 0f       	add	r26, r24
    1ce2:	b1 1d       	adc	r27, r1
    1ce4:	9c 93       	st	X, r25
    1ce6:	8f 5f       	subi	r24, 0xFF	; 255
    1ce8:	e8 16       	cp	r14, r24
    1cea:	50 f7       	brcc	.-44     	; 0x1cc0 <TWIM_ReadBuf+0xa8>
    1cec:	93 81       	ldd	r25, Z+3	; 0x03
    1cee:	93 60       	ori	r25, 0x03	; 3
    1cf0:	93 83       	std	Z+3, r25	; 0x03
    1cf2:	07 c0       	rjmp	.+14     	; 0x1d02 <TWIM_ReadBuf+0xea>
    1cf4:	84 ef       	ldi	r24, 0xF4	; 244
    1cf6:	05 c0       	rjmp	.+10     	; 0x1d02 <TWIM_ReadBuf+0xea>
    1cf8:	85 ef       	ldi	r24, 0xF5	; 245
    1cfa:	03 c0       	rjmp	.+6      	; 0x1d02 <TWIM_ReadBuf+0xea>
    1cfc:	84 ef       	ldi	r24, 0xF4	; 244
    1cfe:	01 c0       	rjmp	.+2      	; 0x1d02 <TWIM_ReadBuf+0xea>
    1d00:	85 ef       	ldi	r24, 0xF5	; 245
    1d02:	df 91       	pop	r29
    1d04:	cf 91       	pop	r28
    1d06:	1f 91       	pop	r17
    1d08:	0f 91       	pop	r16
    1d0a:	ef 90       	pop	r14
    1d0c:	08 95       	ret

00001d0e <USART_SelectMode>:
    1d0e:	60 7c       	andi	r22, 0xC0	; 192
    1d10:	fc 01       	movw	r30, r24
    1d12:	65 83       	std	Z+5, r22	; 0x05
    1d14:	86 2f       	mov	r24, r22
    1d16:	08 95       	ret

00001d18 <USART_CfgUsartTxDPin>:
    1d18:	fc 01       	movw	r30, r24
    1d1a:	60 93 b0 00 	sts	0x00B0, r22	; 0x8000b0 <__TEXT_REGION_LENGTH__+0x7000b0>
    1d1e:	10 8a       	std	Z+16, r1	; 0x10
    1d20:	61 83       	std	Z+1, r22	; 0x01
    1d22:	65 83       	std	Z+5, r22	; 0x05
    1d24:	08 95       	ret

00001d26 <USART_SetAsyncBaudRate>:
    1d26:	4f 92       	push	r4
    1d28:	5f 92       	push	r5
    1d2a:	6f 92       	push	r6
    1d2c:	7f 92       	push	r7
    1d2e:	8f 92       	push	r8
    1d30:	9f 92       	push	r9
    1d32:	af 92       	push	r10
    1d34:	bf 92       	push	r11
    1d36:	cf 92       	push	r12
    1d38:	df 92       	push	r13
    1d3a:	ef 92       	push	r14
    1d3c:	ff 92       	push	r15
    1d3e:	0f 93       	push	r16
    1d40:	1f 93       	push	r17
    1d42:	cf 93       	push	r28
    1d44:	6c 01       	movw	r12, r24
    1d46:	49 01       	movw	r8, r18
    1d48:	5a 01       	movw	r10, r20
    1d4a:	66 23       	and	r22, r22
    1d4c:	29 f0       	breq	.+10     	; 0x1d58 <USART_SetAsyncBaudRate+0x32>
    1d4e:	fc 01       	movw	r30, r24
    1d50:	84 81       	ldd	r24, Z+4	; 0x04
    1d52:	84 60       	ori	r24, 0x04	; 4
    1d54:	84 83       	std	Z+4, r24	; 0x04
    1d56:	04 c0       	rjmp	.+8      	; 0x1d60 <USART_SetAsyncBaudRate+0x3a>
    1d58:	fc 01       	movw	r30, r24
    1d5a:	84 81       	ldd	r24, Z+4	; 0x04
    1d5c:	8b 7f       	andi	r24, 0xFB	; 251
    1d5e:	84 83       	std	Z+4, r24	; 0x04
    1d60:	f6 01       	movw	r30, r12
    1d62:	84 81       	ldd	r24, Z+4	; 0x04
    1d64:	82 ff       	sbrs	r24, 2
    1d66:	16 c0       	rjmp	.+44     	; 0x1d94 <USART_SetAsyncBaudRate+0x6e>
    1d68:	d8 01       	movw	r26, r16
    1d6a:	c7 01       	movw	r24, r14
    1d6c:	68 94       	set
    1d6e:	12 f8       	bld	r1, 2
    1d70:	b6 95       	lsr	r27
    1d72:	a7 95       	ror	r26
    1d74:	97 95       	ror	r25
    1d76:	87 95       	ror	r24
    1d78:	16 94       	lsr	r1
    1d7a:	d1 f7       	brne	.-12     	; 0x1d70 <USART_SetAsyncBaudRate+0x4a>
    1d7c:	b8 01       	movw	r22, r16
    1d7e:	a7 01       	movw	r20, r14
    1d80:	03 2e       	mov	r0, r19
    1d82:	36 e1       	ldi	r19, 0x16	; 22
    1d84:	76 95       	lsr	r23
    1d86:	67 95       	ror	r22
    1d88:	57 95       	ror	r21
    1d8a:	47 95       	ror	r20
    1d8c:	3a 95       	dec	r19
    1d8e:	d1 f7       	brne	.-12     	; 0x1d84 <USART_SetAsyncBaudRate+0x5e>
    1d90:	30 2d       	mov	r19, r0
    1d92:	15 c0       	rjmp	.+42     	; 0x1dbe <USART_SetAsyncBaudRate+0x98>
    1d94:	d8 01       	movw	r26, r16
    1d96:	c7 01       	movw	r24, r14
    1d98:	68 94       	set
    1d9a:	13 f8       	bld	r1, 3
    1d9c:	b6 95       	lsr	r27
    1d9e:	a7 95       	ror	r26
    1da0:	97 95       	ror	r25
    1da2:	87 95       	ror	r24
    1da4:	16 94       	lsr	r1
    1da6:	d1 f7       	brne	.-12     	; 0x1d9c <USART_SetAsyncBaudRate+0x76>
    1da8:	b8 01       	movw	r22, r16
    1daa:	a7 01       	movw	r20, r14
    1dac:	03 2e       	mov	r0, r19
    1dae:	37 e1       	ldi	r19, 0x17	; 23
    1db0:	76 95       	lsr	r23
    1db2:	67 95       	ror	r22
    1db4:	57 95       	ror	r21
    1db6:	47 95       	ror	r20
    1db8:	3a 95       	dec	r19
    1dba:	d1 f7       	brne	.-12     	; 0x1db0 <USART_SetAsyncBaudRate+0x8a>
    1dbc:	30 2d       	mov	r19, r0
    1dbe:	88 15       	cp	r24, r8
    1dc0:	99 05       	cpc	r25, r9
    1dc2:	aa 05       	cpc	r26, r10
    1dc4:	bb 05       	cpc	r27, r11
    1dc6:	08 f4       	brcc	.+2      	; 0x1dca <USART_SetAsyncBaudRate+0xa4>
    1dc8:	ac c0       	rjmp	.+344    	; 0x1f22 <USART_SetAsyncBaudRate+0x1fc>
    1dca:	84 16       	cp	r8, r20
    1dcc:	95 06       	cpc	r9, r21
    1dce:	a6 06       	cpc	r10, r22
    1dd0:	b7 06       	cpc	r11, r23
    1dd2:	08 f4       	brcc	.+2      	; 0x1dd6 <USART_SetAsyncBaudRate+0xb0>
    1dd4:	a8 c0       	rjmp	.+336    	; 0x1f26 <USART_SetAsyncBaudRate+0x200>
    1dd6:	f6 01       	movw	r30, r12
    1dd8:	84 81       	ldd	r24, Z+4	; 0x04
    1dda:	82 fd       	sbrc	r24, 2
    1ddc:	04 c0       	rjmp	.+8      	; 0x1de6 <USART_SetAsyncBaudRate+0xc0>
    1dde:	88 0c       	add	r8, r8
    1de0:	99 1c       	adc	r9, r9
    1de2:	aa 1c       	adc	r10, r10
    1de4:	bb 1c       	adc	r11, r11
    1de6:	c8 01       	movw	r24, r16
    1de8:	b7 01       	movw	r22, r14
    1dea:	a5 01       	movw	r20, r10
    1dec:	94 01       	movw	r18, r8
    1dee:	0e 94 55 10 	call	0x20aa	; 0x20aa <__udivmodsi4>
    1df2:	2f 3f       	cpi	r18, 0xFF	; 255
    1df4:	31 05       	cpc	r19, r1
    1df6:	41 05       	cpc	r20, r1
    1df8:	51 05       	cpc	r21, r1
    1dfa:	08 f4       	brcc	.+2      	; 0x1dfe <USART_SetAsyncBaudRate+0xd8>
    1dfc:	96 c0       	rjmp	.+300    	; 0x1f2a <USART_SetAsyncBaudRate+0x204>
    1dfe:	8f ef       	ldi	r24, 0xFF	; 255
    1e00:	90 e0       	ldi	r25, 0x00	; 0
    1e02:	a0 e0       	ldi	r26, 0x00	; 0
    1e04:	b0 e0       	ldi	r27, 0x00	; 0
    1e06:	c9 ef       	ldi	r28, 0xF9	; 249
    1e08:	05 c0       	rjmp	.+10     	; 0x1e14 <USART_SetAsyncBaudRate+0xee>
    1e0a:	28 17       	cp	r18, r24
    1e0c:	39 07       	cpc	r19, r25
    1e0e:	4a 07       	cpc	r20, r26
    1e10:	5b 07       	cpc	r21, r27
    1e12:	58 f0       	brcs	.+22     	; 0x1e2a <USART_SetAsyncBaudRate+0x104>
    1e14:	88 0f       	add	r24, r24
    1e16:	99 1f       	adc	r25, r25
    1e18:	aa 1f       	adc	r26, r26
    1e1a:	bb 1f       	adc	r27, r27
    1e1c:	cd 3f       	cpi	r28, 0xFD	; 253
    1e1e:	0c f4       	brge	.+2      	; 0x1e22 <USART_SetAsyncBaudRate+0xfc>
    1e20:	81 60       	ori	r24, 0x01	; 1
    1e22:	cf 5f       	subi	r28, 0xFF	; 255
    1e24:	c7 30       	cpi	r28, 0x07	; 7
    1e26:	89 f7       	brne	.-30     	; 0x1e0a <USART_SetAsyncBaudRate+0xe4>
    1e28:	55 c0       	rjmp	.+170    	; 0x1ed4 <USART_SetAsyncBaudRate+0x1ae>
    1e2a:	cc 23       	and	r28, r28
    1e2c:	0c f0       	brlt	.+2      	; 0x1e30 <USART_SetAsyncBaudRate+0x10a>
    1e2e:	52 c0       	rjmp	.+164    	; 0x1ed4 <USART_SetAsyncBaudRate+0x1ae>
    1e30:	d5 01       	movw	r26, r10
    1e32:	c4 01       	movw	r24, r8
    1e34:	88 0f       	add	r24, r24
    1e36:	99 1f       	adc	r25, r25
    1e38:	aa 1f       	adc	r26, r26
    1e3a:	bb 1f       	adc	r27, r27
    1e3c:	88 0f       	add	r24, r24
    1e3e:	99 1f       	adc	r25, r25
    1e40:	aa 1f       	adc	r26, r26
    1e42:	bb 1f       	adc	r27, r27
    1e44:	88 0f       	add	r24, r24
    1e46:	99 1f       	adc	r25, r25
    1e48:	aa 1f       	adc	r26, r26
    1e4a:	bb 1f       	adc	r27, r27
    1e4c:	27 01       	movw	r4, r14
    1e4e:	38 01       	movw	r6, r16
    1e50:	48 1a       	sub	r4, r24
    1e52:	59 0a       	sbc	r5, r25
    1e54:	6a 0a       	sbc	r6, r26
    1e56:	7b 0a       	sbc	r7, r27
    1e58:	ce 3f       	cpi	r28, 0xFE	; 254
    1e5a:	14 f5       	brge	.+68     	; 0x1ea0 <USART_SetAsyncBaudRate+0x17a>
    1e5c:	8d ef       	ldi	r24, 0xFD	; 253
    1e5e:	9f ef       	ldi	r25, 0xFF	; 255
    1e60:	8c 1b       	sub	r24, r28
    1e62:	91 09       	sbc	r25, r1
    1e64:	c7 fd       	sbrc	r28, 7
    1e66:	93 95       	inc	r25
    1e68:	b3 01       	movw	r22, r6
    1e6a:	a2 01       	movw	r20, r4
    1e6c:	04 c0       	rjmp	.+8      	; 0x1e76 <USART_SetAsyncBaudRate+0x150>
    1e6e:	44 0f       	add	r20, r20
    1e70:	55 1f       	adc	r21, r21
    1e72:	66 1f       	adc	r22, r22
    1e74:	77 1f       	adc	r23, r23
    1e76:	8a 95       	dec	r24
    1e78:	d2 f7       	brpl	.-12     	; 0x1e6e <USART_SetAsyncBaudRate+0x148>
    1e7a:	d5 01       	movw	r26, r10
    1e7c:	c4 01       	movw	r24, r8
    1e7e:	b6 95       	lsr	r27
    1e80:	a7 95       	ror	r26
    1e82:	97 95       	ror	r25
    1e84:	87 95       	ror	r24
    1e86:	8a 01       	movw	r16, r20
    1e88:	9b 01       	movw	r18, r22
    1e8a:	08 0f       	add	r16, r24
    1e8c:	19 1f       	adc	r17, r25
    1e8e:	2a 1f       	adc	r18, r26
    1e90:	3b 1f       	adc	r19, r27
    1e92:	c9 01       	movw	r24, r18
    1e94:	b8 01       	movw	r22, r16
    1e96:	a5 01       	movw	r20, r10
    1e98:	94 01       	movw	r18, r8
    1e9a:	0e 94 55 10 	call	0x20aa	; 0x20aa <__udivmodsi4>
    1e9e:	37 c0       	rjmp	.+110    	; 0x1f0e <USART_SetAsyncBaudRate+0x1e8>
    1ea0:	83 e0       	ldi	r24, 0x03	; 3
    1ea2:	8c 0f       	add	r24, r28
    1ea4:	a5 01       	movw	r20, r10
    1ea6:	94 01       	movw	r18, r8
    1ea8:	04 c0       	rjmp	.+8      	; 0x1eb2 <USART_SetAsyncBaudRate+0x18c>
    1eaa:	22 0f       	add	r18, r18
    1eac:	33 1f       	adc	r19, r19
    1eae:	44 1f       	adc	r20, r20
    1eb0:	55 1f       	adc	r21, r21
    1eb2:	8a 95       	dec	r24
    1eb4:	d2 f7       	brpl	.-12     	; 0x1eaa <USART_SetAsyncBaudRate+0x184>
    1eb6:	da 01       	movw	r26, r20
    1eb8:	c9 01       	movw	r24, r18
    1eba:	b6 95       	lsr	r27
    1ebc:	a7 95       	ror	r26
    1ebe:	97 95       	ror	r25
    1ec0:	87 95       	ror	r24
    1ec2:	bc 01       	movw	r22, r24
    1ec4:	cd 01       	movw	r24, r26
    1ec6:	64 0d       	add	r22, r4
    1ec8:	75 1d       	adc	r23, r5
    1eca:	86 1d       	adc	r24, r6
    1ecc:	97 1d       	adc	r25, r7
    1ece:	0e 94 55 10 	call	0x20aa	; 0x20aa <__udivmodsi4>
    1ed2:	1d c0       	rjmp	.+58     	; 0x1f0e <USART_SetAsyncBaudRate+0x1e8>
    1ed4:	83 e0       	ldi	r24, 0x03	; 3
    1ed6:	8c 0f       	add	r24, r28
    1ed8:	a5 01       	movw	r20, r10
    1eda:	94 01       	movw	r18, r8
    1edc:	04 c0       	rjmp	.+8      	; 0x1ee6 <USART_SetAsyncBaudRate+0x1c0>
    1ede:	22 0f       	add	r18, r18
    1ee0:	33 1f       	adc	r19, r19
    1ee2:	44 1f       	adc	r20, r20
    1ee4:	55 1f       	adc	r21, r21
    1ee6:	8a 95       	dec	r24
    1ee8:	d2 f7       	brpl	.-12     	; 0x1ede <USART_SetAsyncBaudRate+0x1b8>
    1eea:	da 01       	movw	r26, r20
    1eec:	c9 01       	movw	r24, r18
    1eee:	b6 95       	lsr	r27
    1ef0:	a7 95       	ror	r26
    1ef2:	97 95       	ror	r25
    1ef4:	87 95       	ror	r24
    1ef6:	bc 01       	movw	r22, r24
    1ef8:	cd 01       	movw	r24, r26
    1efa:	6e 0d       	add	r22, r14
    1efc:	7f 1d       	adc	r23, r15
    1efe:	80 1f       	adc	r24, r16
    1f00:	91 1f       	adc	r25, r17
    1f02:	0e 94 55 10 	call	0x20aa	; 0x20aa <__udivmodsi4>
    1f06:	21 50       	subi	r18, 0x01	; 1
    1f08:	31 09       	sbc	r19, r1
    1f0a:	41 09       	sbc	r20, r1
    1f0c:	51 09       	sbc	r21, r1
    1f0e:	83 2f       	mov	r24, r19
    1f10:	8f 70       	andi	r24, 0x0F	; 15
    1f12:	c2 95       	swap	r28
    1f14:	c0 7f       	andi	r28, 0xF0	; 240
    1f16:	c8 2b       	or	r28, r24
    1f18:	f6 01       	movw	r30, r12
    1f1a:	c7 83       	std	Z+7, r28	; 0x07
    1f1c:	26 83       	std	Z+6, r18	; 0x06
    1f1e:	80 e0       	ldi	r24, 0x00	; 0
    1f20:	1a c0       	rjmp	.+52     	; 0x1f56 <USART_SetAsyncBaudRate+0x230>
    1f22:	81 e0       	ldi	r24, 0x01	; 1
    1f24:	18 c0       	rjmp	.+48     	; 0x1f56 <USART_SetAsyncBaudRate+0x230>
    1f26:	81 e0       	ldi	r24, 0x01	; 1
    1f28:	16 c0       	rjmp	.+44     	; 0x1f56 <USART_SetAsyncBaudRate+0x230>
    1f2a:	d5 01       	movw	r26, r10
    1f2c:	c4 01       	movw	r24, r8
    1f2e:	88 0f       	add	r24, r24
    1f30:	99 1f       	adc	r25, r25
    1f32:	aa 1f       	adc	r26, r26
    1f34:	bb 1f       	adc	r27, r27
    1f36:	88 0f       	add	r24, r24
    1f38:	99 1f       	adc	r25, r25
    1f3a:	aa 1f       	adc	r26, r26
    1f3c:	bb 1f       	adc	r27, r27
    1f3e:	88 0f       	add	r24, r24
    1f40:	99 1f       	adc	r25, r25
    1f42:	aa 1f       	adc	r26, r26
    1f44:	bb 1f       	adc	r27, r27
    1f46:	27 01       	movw	r4, r14
    1f48:	38 01       	movw	r6, r16
    1f4a:	48 1a       	sub	r4, r24
    1f4c:	59 0a       	sbc	r5, r25
    1f4e:	6a 0a       	sbc	r6, r26
    1f50:	7b 0a       	sbc	r7, r27
    1f52:	c9 ef       	ldi	r28, 0xF9	; 249
    1f54:	83 cf       	rjmp	.-250    	; 0x1e5c <USART_SetAsyncBaudRate+0x136>
    1f56:	cf 91       	pop	r28
    1f58:	1f 91       	pop	r17
    1f5a:	0f 91       	pop	r16
    1f5c:	ff 90       	pop	r15
    1f5e:	ef 90       	pop	r14
    1f60:	df 90       	pop	r13
    1f62:	cf 90       	pop	r12
    1f64:	bf 90       	pop	r11
    1f66:	af 90       	pop	r10
    1f68:	9f 90       	pop	r9
    1f6a:	8f 90       	pop	r8
    1f6c:	7f 90       	pop	r7
    1f6e:	6f 90       	pop	r6
    1f70:	5f 90       	pop	r5
    1f72:	4f 90       	pop	r4
    1f74:	08 95       	ret

00001f76 <USART_SetSyncBaudRate>:
    1f76:	cf 92       	push	r12
    1f78:	df 92       	push	r13
    1f7a:	ef 92       	push	r14
    1f7c:	ff 92       	push	r15
    1f7e:	0f 93       	push	r16
    1f80:	1f 93       	push	r17
    1f82:	cf 93       	push	r28
    1f84:	df 93       	push	r29
    1f86:	ec 01       	movw	r28, r24
    1f88:	8c 81       	ldd	r24, Y+4	; 0x04
    1f8a:	8b 7f       	andi	r24, 0xFB	; 251
    1f8c:	8c 83       	std	Y+4, r24	; 0x04
    1f8e:	d9 01       	movw	r26, r18
    1f90:	c8 01       	movw	r24, r16
    1f92:	b6 95       	lsr	r27
    1f94:	a7 95       	ror	r26
    1f96:	97 95       	ror	r25
    1f98:	87 95       	ror	r24
    1f9a:	48 17       	cp	r20, r24
    1f9c:	59 07       	cpc	r21, r25
    1f9e:	6a 07       	cpc	r22, r26
    1fa0:	7b 07       	cpc	r23, r27
    1fa2:	78 f4       	brcc	.+30     	; 0x1fc2 <USART_SetSyncBaudRate+0x4c>
    1fa4:	6a 01       	movw	r12, r20
    1fa6:	7b 01       	movw	r14, r22
    1fa8:	cc 0c       	add	r12, r12
    1faa:	dd 1c       	adc	r13, r13
    1fac:	ee 1c       	adc	r14, r14
    1fae:	ff 1c       	adc	r15, r15
    1fb0:	c9 01       	movw	r24, r18
    1fb2:	b8 01       	movw	r22, r16
    1fb4:	a7 01       	movw	r20, r14
    1fb6:	96 01       	movw	r18, r12
    1fb8:	0e 94 55 10 	call	0x20aa	; 0x20aa <__udivmodsi4>
    1fbc:	21 50       	subi	r18, 0x01	; 1
    1fbe:	31 09       	sbc	r19, r1
    1fc0:	02 c0       	rjmp	.+4      	; 0x1fc6 <USART_SetSyncBaudRate+0x50>
    1fc2:	20 e0       	ldi	r18, 0x00	; 0
    1fc4:	30 e0       	ldi	r19, 0x00	; 0
    1fc6:	83 2f       	mov	r24, r19
    1fc8:	8f 70       	andi	r24, 0x0F	; 15
    1fca:	8f 83       	std	Y+7, r24	; 0x07
    1fcc:	2e 83       	std	Y+6, r18	; 0x06
    1fce:	80 e0       	ldi	r24, 0x00	; 0
    1fd0:	df 91       	pop	r29
    1fd2:	cf 91       	pop	r28
    1fd4:	1f 91       	pop	r17
    1fd6:	0f 91       	pop	r16
    1fd8:	ff 90       	pop	r15
    1fda:	ef 90       	pop	r14
    1fdc:	df 90       	pop	r13
    1fde:	cf 90       	pop	r12
    1fe0:	08 95       	ret

00001fe2 <USART_SetBaudRate>:
    1fe2:	ef 92       	push	r14
    1fe4:	ff 92       	push	r15
    1fe6:	0f 93       	push	r16
    1fe8:	1f 93       	push	r17
    1fea:	fc 01       	movw	r30, r24
    1fec:	86 2f       	mov	r24, r22
    1fee:	ba 01       	movw	r22, r20
    1ff0:	a9 01       	movw	r20, r18
    1ff2:	95 81       	ldd	r25, Z+5	; 0x05
    1ff4:	90 7c       	andi	r25, 0xC0	; 192
    1ff6:	90 34       	cpi	r25, 0x40	; 64
    1ff8:	b9 f0       	breq	.+46     	; 0x2028 <USART_SetBaudRate+0x46>
    1ffa:	18 f4       	brcc	.+6      	; 0x2002 <USART_SetBaudRate+0x20>
    1ffc:	99 23       	and	r25, r25
    1ffe:	31 f0       	breq	.+12     	; 0x200c <USART_SetBaudRate+0x2a>
    2000:	19 c0       	rjmp	.+50     	; 0x2034 <USART_SetBaudRate+0x52>
    2002:	90 38       	cpi	r25, 0x80	; 128
    2004:	51 f0       	breq	.+20     	; 0x201a <USART_SetBaudRate+0x38>
    2006:	90 3c       	cpi	r25, 0xC0	; 192
    2008:	79 f0       	breq	.+30     	; 0x2028 <USART_SetBaudRate+0x46>
    200a:	14 c0       	rjmp	.+40     	; 0x2034 <USART_SetBaudRate+0x52>
    200c:	9a 01       	movw	r18, r20
    200e:	ab 01       	movw	r20, r22
    2010:	68 2f       	mov	r22, r24
    2012:	cf 01       	movw	r24, r30
    2014:	0e 94 93 0e 	call	0x1d26	; 0x1d26 <USART_SetAsyncBaudRate>
    2018:	0e c0       	rjmp	.+28     	; 0x2036 <USART_SetBaudRate+0x54>
    201a:	9a 01       	movw	r18, r20
    201c:	ab 01       	movw	r20, r22
    201e:	60 e0       	ldi	r22, 0x00	; 0
    2020:	cf 01       	movw	r24, r30
    2022:	0e 94 93 0e 	call	0x1d26	; 0x1d26 <USART_SetAsyncBaudRate>
    2026:	07 c0       	rjmp	.+14     	; 0x2036 <USART_SetBaudRate+0x54>
    2028:	98 01       	movw	r18, r16
    202a:	87 01       	movw	r16, r14
    202c:	cf 01       	movw	r24, r30
    202e:	0e 94 bb 0f 	call	0x1f76	; 0x1f76 <USART_SetSyncBaudRate>
    2032:	01 c0       	rjmp	.+2      	; 0x2036 <USART_SetBaudRate+0x54>
    2034:	81 e0       	ldi	r24, 0x01	; 1
    2036:	1f 91       	pop	r17
    2038:	0f 91       	pop	r16
    203a:	ff 90       	pop	r15
    203c:	ef 90       	pop	r14
    203e:	08 95       	ret

00002040 <USART_CfgSpiSCKPin>:
    2040:	fc 01       	movw	r30, r24
    2042:	42 50       	subi	r20, 0x02	; 2
    2044:	42 30       	cpi	r20, 0x02	; 2
    2046:	10 f4       	brcc	.+4      	; 0x204c <USART_CfgSpiSCKPin+0xc>
    2048:	80 e4       	ldi	r24, 0x40	; 64
    204a:	01 c0       	rjmp	.+2      	; 0x204e <USART_CfgSpiSCKPin+0xe>
    204c:	80 e0       	ldi	r24, 0x00	; 0
    204e:	60 93 b0 00 	sts	0x00B0, r22	; 0x8000b0 <__TEXT_REGION_LENGTH__+0x7000b0>
    2052:	80 8b       	std	Z+16, r24	; 0x10
    2054:	61 83       	std	Z+1, r22	; 0x01
    2056:	66 83       	std	Z+6, r22	; 0x06
    2058:	08 95       	ret

0000205a <USART_CfgSpiSSPin>:
    205a:	fc 01       	movw	r30, r24
    205c:	60 93 b0 00 	sts	0x00B0, r22	; 0x8000b0 <__TEXT_REGION_LENGTH__+0x7000b0>
    2060:	10 8a       	std	Z+16, r1	; 0x10
    2062:	61 83       	std	Z+1, r22	; 0x01
    2064:	65 83       	std	Z+5, r22	; 0x05
    2066:	08 95       	ret

00002068 <USART_CfgSpiParam>:
    2068:	fc 01       	movw	r30, r24
    206a:	6d 7f       	andi	r22, 0xFD	; 253
    206c:	61 30       	cpi	r22, 0x01	; 1
    206e:	11 f4       	brne	.+4      	; 0x2074 <USART_CfgSpiParam+0xc>
    2070:	92 e0       	ldi	r25, 0x02	; 2
    2072:	01 c0       	rjmp	.+2      	; 0x2076 <USART_CfgSpiParam+0xe>
    2074:	90 e0       	ldi	r25, 0x00	; 0
    2076:	25 81       	ldd	r18, Z+5	; 0x05
    2078:	29 7f       	andi	r18, 0xF9	; 249
    207a:	42 2b       	or	r20, r18
    207c:	49 2b       	or	r20, r25
    207e:	45 83       	std	Z+5, r20	; 0x05
    2080:	08 95       	ret

00002082 <__divmodhi4>:
    2082:	97 fb       	bst	r25, 7
    2084:	07 2e       	mov	r0, r23
    2086:	16 f4       	brtc	.+4      	; 0x208c <__divmodhi4+0xa>
    2088:	00 94       	com	r0
    208a:	07 d0       	rcall	.+14     	; 0x209a <__divmodhi4_neg1>
    208c:	77 fd       	sbrc	r23, 7
    208e:	09 d0       	rcall	.+18     	; 0x20a2 <__divmodhi4_neg2>
    2090:	0e 94 77 10 	call	0x20ee	; 0x20ee <__udivmodhi4>
    2094:	07 fc       	sbrc	r0, 7
    2096:	05 d0       	rcall	.+10     	; 0x20a2 <__divmodhi4_neg2>
    2098:	3e f4       	brtc	.+14     	; 0x20a8 <__divmodhi4_exit>

0000209a <__divmodhi4_neg1>:
    209a:	90 95       	com	r25
    209c:	81 95       	neg	r24
    209e:	9f 4f       	sbci	r25, 0xFF	; 255
    20a0:	08 95       	ret

000020a2 <__divmodhi4_neg2>:
    20a2:	70 95       	com	r23
    20a4:	61 95       	neg	r22
    20a6:	7f 4f       	sbci	r23, 0xFF	; 255

000020a8 <__divmodhi4_exit>:
    20a8:	08 95       	ret

000020aa <__udivmodsi4>:
    20aa:	a1 e2       	ldi	r26, 0x21	; 33
    20ac:	1a 2e       	mov	r1, r26
    20ae:	aa 1b       	sub	r26, r26
    20b0:	bb 1b       	sub	r27, r27
    20b2:	fd 01       	movw	r30, r26
    20b4:	0d c0       	rjmp	.+26     	; 0x20d0 <__udivmodsi4_ep>

000020b6 <__udivmodsi4_loop>:
    20b6:	aa 1f       	adc	r26, r26
    20b8:	bb 1f       	adc	r27, r27
    20ba:	ee 1f       	adc	r30, r30
    20bc:	ff 1f       	adc	r31, r31
    20be:	a2 17       	cp	r26, r18
    20c0:	b3 07       	cpc	r27, r19
    20c2:	e4 07       	cpc	r30, r20
    20c4:	f5 07       	cpc	r31, r21
    20c6:	20 f0       	brcs	.+8      	; 0x20d0 <__udivmodsi4_ep>
    20c8:	a2 1b       	sub	r26, r18
    20ca:	b3 0b       	sbc	r27, r19
    20cc:	e4 0b       	sbc	r30, r20
    20ce:	f5 0b       	sbc	r31, r21

000020d0 <__udivmodsi4_ep>:
    20d0:	66 1f       	adc	r22, r22
    20d2:	77 1f       	adc	r23, r23
    20d4:	88 1f       	adc	r24, r24
    20d6:	99 1f       	adc	r25, r25
    20d8:	1a 94       	dec	r1
    20da:	69 f7       	brne	.-38     	; 0x20b6 <__udivmodsi4_loop>
    20dc:	60 95       	com	r22
    20de:	70 95       	com	r23
    20e0:	80 95       	com	r24
    20e2:	90 95       	com	r25
    20e4:	9b 01       	movw	r18, r22
    20e6:	ac 01       	movw	r20, r24
    20e8:	bd 01       	movw	r22, r26
    20ea:	cf 01       	movw	r24, r30
    20ec:	08 95       	ret

000020ee <__udivmodhi4>:
    20ee:	aa 1b       	sub	r26, r26
    20f0:	bb 1b       	sub	r27, r27
    20f2:	51 e1       	ldi	r21, 0x11	; 17
    20f4:	07 c0       	rjmp	.+14     	; 0x2104 <__udivmodhi4_ep>

000020f6 <__udivmodhi4_loop>:
    20f6:	aa 1f       	adc	r26, r26
    20f8:	bb 1f       	adc	r27, r27
    20fa:	a6 17       	cp	r26, r22
    20fc:	b7 07       	cpc	r27, r23
    20fe:	10 f0       	brcs	.+4      	; 0x2104 <__udivmodhi4_ep>
    2100:	a6 1b       	sub	r26, r22
    2102:	b7 0b       	sbc	r27, r23

00002104 <__udivmodhi4_ep>:
    2104:	88 1f       	adc	r24, r24
    2106:	99 1f       	adc	r25, r25
    2108:	5a 95       	dec	r21
    210a:	a9 f7       	brne	.-22     	; 0x20f6 <__udivmodhi4_loop>
    210c:	80 95       	com	r24
    210e:	90 95       	com	r25
    2110:	bc 01       	movw	r22, r24
    2112:	cd 01       	movw	r24, r26
    2114:	08 95       	ret

00002116 <sprintf>:
    2116:	0f 93       	push	r16
    2118:	1f 93       	push	r17
    211a:	cf 93       	push	r28
    211c:	df 93       	push	r29
    211e:	cd b7       	in	r28, 0x3d	; 61
    2120:	de b7       	in	r29, 0x3e	; 62
    2122:	2e 97       	sbiw	r28, 0x0e	; 14
    2124:	cd bf       	out	0x3d, r28	; 61
    2126:	de bf       	out	0x3e, r29	; 62
    2128:	0e 89       	ldd	r16, Y+22	; 0x16
    212a:	1f 89       	ldd	r17, Y+23	; 0x17
    212c:	86 e0       	ldi	r24, 0x06	; 6
    212e:	8c 83       	std	Y+4, r24	; 0x04
    2130:	09 83       	std	Y+1, r16	; 0x01
    2132:	1a 83       	std	Y+2, r17	; 0x02
    2134:	8f ef       	ldi	r24, 0xFF	; 255
    2136:	9f e7       	ldi	r25, 0x7F	; 127
    2138:	8d 83       	std	Y+5, r24	; 0x05
    213a:	9e 83       	std	Y+6, r25	; 0x06
    213c:	ae 01       	movw	r20, r28
    213e:	46 5e       	subi	r20, 0xE6	; 230
    2140:	5f 4f       	sbci	r21, 0xFF	; 255
    2142:	68 8d       	ldd	r22, Y+24	; 0x18
    2144:	79 8d       	ldd	r23, Y+25	; 0x19
    2146:	ce 01       	movw	r24, r28
    2148:	01 96       	adiw	r24, 0x01	; 1
    214a:	0e 94 b4 10 	call	0x2168	; 0x2168 <vfprintf>
    214e:	ef 81       	ldd	r30, Y+7	; 0x07
    2150:	f8 85       	ldd	r31, Y+8	; 0x08
    2152:	e0 0f       	add	r30, r16
    2154:	f1 1f       	adc	r31, r17
    2156:	10 82       	st	Z, r1
    2158:	2e 96       	adiw	r28, 0x0e	; 14
    215a:	cd bf       	out	0x3d, r28	; 61
    215c:	de bf       	out	0x3e, r29	; 62
    215e:	df 91       	pop	r29
    2160:	cf 91       	pop	r28
    2162:	1f 91       	pop	r17
    2164:	0f 91       	pop	r16
    2166:	08 95       	ret

00002168 <vfprintf>:
    2168:	2f 92       	push	r2
    216a:	3f 92       	push	r3
    216c:	4f 92       	push	r4
    216e:	5f 92       	push	r5
    2170:	6f 92       	push	r6
    2172:	7f 92       	push	r7
    2174:	8f 92       	push	r8
    2176:	9f 92       	push	r9
    2178:	af 92       	push	r10
    217a:	bf 92       	push	r11
    217c:	cf 92       	push	r12
    217e:	df 92       	push	r13
    2180:	ef 92       	push	r14
    2182:	ff 92       	push	r15
    2184:	0f 93       	push	r16
    2186:	1f 93       	push	r17
    2188:	cf 93       	push	r28
    218a:	df 93       	push	r29
    218c:	cd b7       	in	r28, 0x3d	; 61
    218e:	de b7       	in	r29, 0x3e	; 62
    2190:	2b 97       	sbiw	r28, 0x0b	; 11
    2192:	cd bf       	out	0x3d, r28	; 61
    2194:	de bf       	out	0x3e, r29	; 62
    2196:	6c 01       	movw	r12, r24
    2198:	7b 01       	movw	r14, r22
    219a:	8a 01       	movw	r16, r20
    219c:	fc 01       	movw	r30, r24
    219e:	16 82       	std	Z+6, r1	; 0x06
    21a0:	17 82       	std	Z+7, r1	; 0x07
    21a2:	83 81       	ldd	r24, Z+3	; 0x03
    21a4:	81 ff       	sbrs	r24, 1
    21a6:	cc c1       	rjmp	.+920    	; 0x2540 <vfprintf+0x3d8>
    21a8:	ce 01       	movw	r24, r28
    21aa:	01 96       	adiw	r24, 0x01	; 1
    21ac:	3c 01       	movw	r6, r24
    21ae:	f6 01       	movw	r30, r12
    21b0:	93 81       	ldd	r25, Z+3	; 0x03
    21b2:	f7 01       	movw	r30, r14
    21b4:	93 fd       	sbrc	r25, 3
    21b6:	85 91       	lpm	r24, Z+
    21b8:	93 ff       	sbrs	r25, 3
    21ba:	81 91       	ld	r24, Z+
    21bc:	7f 01       	movw	r14, r30
    21be:	88 23       	and	r24, r24
    21c0:	09 f4       	brne	.+2      	; 0x21c4 <vfprintf+0x5c>
    21c2:	ba c1       	rjmp	.+884    	; 0x2538 <vfprintf+0x3d0>
    21c4:	85 32       	cpi	r24, 0x25	; 37
    21c6:	39 f4       	brne	.+14     	; 0x21d6 <vfprintf+0x6e>
    21c8:	93 fd       	sbrc	r25, 3
    21ca:	85 91       	lpm	r24, Z+
    21cc:	93 ff       	sbrs	r25, 3
    21ce:	81 91       	ld	r24, Z+
    21d0:	7f 01       	movw	r14, r30
    21d2:	85 32       	cpi	r24, 0x25	; 37
    21d4:	29 f4       	brne	.+10     	; 0x21e0 <vfprintf+0x78>
    21d6:	b6 01       	movw	r22, r12
    21d8:	90 e0       	ldi	r25, 0x00	; 0
    21da:	0e 94 ce 12 	call	0x259c	; 0x259c <fputc>
    21de:	e7 cf       	rjmp	.-50     	; 0x21ae <vfprintf+0x46>
    21e0:	91 2c       	mov	r9, r1
    21e2:	21 2c       	mov	r2, r1
    21e4:	31 2c       	mov	r3, r1
    21e6:	ff e1       	ldi	r31, 0x1F	; 31
    21e8:	f3 15       	cp	r31, r3
    21ea:	d8 f0       	brcs	.+54     	; 0x2222 <vfprintf+0xba>
    21ec:	8b 32       	cpi	r24, 0x2B	; 43
    21ee:	79 f0       	breq	.+30     	; 0x220e <vfprintf+0xa6>
    21f0:	38 f4       	brcc	.+14     	; 0x2200 <vfprintf+0x98>
    21f2:	80 32       	cpi	r24, 0x20	; 32
    21f4:	79 f0       	breq	.+30     	; 0x2214 <vfprintf+0xac>
    21f6:	83 32       	cpi	r24, 0x23	; 35
    21f8:	a1 f4       	brne	.+40     	; 0x2222 <vfprintf+0xba>
    21fa:	23 2d       	mov	r18, r3
    21fc:	20 61       	ori	r18, 0x10	; 16
    21fe:	1d c0       	rjmp	.+58     	; 0x223a <vfprintf+0xd2>
    2200:	8d 32       	cpi	r24, 0x2D	; 45
    2202:	61 f0       	breq	.+24     	; 0x221c <vfprintf+0xb4>
    2204:	80 33       	cpi	r24, 0x30	; 48
    2206:	69 f4       	brne	.+26     	; 0x2222 <vfprintf+0xba>
    2208:	23 2d       	mov	r18, r3
    220a:	21 60       	ori	r18, 0x01	; 1
    220c:	16 c0       	rjmp	.+44     	; 0x223a <vfprintf+0xd2>
    220e:	83 2d       	mov	r24, r3
    2210:	82 60       	ori	r24, 0x02	; 2
    2212:	38 2e       	mov	r3, r24
    2214:	e3 2d       	mov	r30, r3
    2216:	e4 60       	ori	r30, 0x04	; 4
    2218:	3e 2e       	mov	r3, r30
    221a:	2a c0       	rjmp	.+84     	; 0x2270 <vfprintf+0x108>
    221c:	f3 2d       	mov	r31, r3
    221e:	f8 60       	ori	r31, 0x08	; 8
    2220:	1d c0       	rjmp	.+58     	; 0x225c <vfprintf+0xf4>
    2222:	37 fc       	sbrc	r3, 7
    2224:	2d c0       	rjmp	.+90     	; 0x2280 <vfprintf+0x118>
    2226:	20 ed       	ldi	r18, 0xD0	; 208
    2228:	28 0f       	add	r18, r24
    222a:	2a 30       	cpi	r18, 0x0A	; 10
    222c:	40 f0       	brcs	.+16     	; 0x223e <vfprintf+0xd6>
    222e:	8e 32       	cpi	r24, 0x2E	; 46
    2230:	b9 f4       	brne	.+46     	; 0x2260 <vfprintf+0xf8>
    2232:	36 fc       	sbrc	r3, 6
    2234:	81 c1       	rjmp	.+770    	; 0x2538 <vfprintf+0x3d0>
    2236:	23 2d       	mov	r18, r3
    2238:	20 64       	ori	r18, 0x40	; 64
    223a:	32 2e       	mov	r3, r18
    223c:	19 c0       	rjmp	.+50     	; 0x2270 <vfprintf+0x108>
    223e:	36 fe       	sbrs	r3, 6
    2240:	06 c0       	rjmp	.+12     	; 0x224e <vfprintf+0xe6>
    2242:	8a e0       	ldi	r24, 0x0A	; 10
    2244:	98 9e       	mul	r9, r24
    2246:	20 0d       	add	r18, r0
    2248:	11 24       	eor	r1, r1
    224a:	92 2e       	mov	r9, r18
    224c:	11 c0       	rjmp	.+34     	; 0x2270 <vfprintf+0x108>
    224e:	ea e0       	ldi	r30, 0x0A	; 10
    2250:	2e 9e       	mul	r2, r30
    2252:	20 0d       	add	r18, r0
    2254:	11 24       	eor	r1, r1
    2256:	22 2e       	mov	r2, r18
    2258:	f3 2d       	mov	r31, r3
    225a:	f0 62       	ori	r31, 0x20	; 32
    225c:	3f 2e       	mov	r3, r31
    225e:	08 c0       	rjmp	.+16     	; 0x2270 <vfprintf+0x108>
    2260:	8c 36       	cpi	r24, 0x6C	; 108
    2262:	21 f4       	brne	.+8      	; 0x226c <vfprintf+0x104>
    2264:	83 2d       	mov	r24, r3
    2266:	80 68       	ori	r24, 0x80	; 128
    2268:	38 2e       	mov	r3, r24
    226a:	02 c0       	rjmp	.+4      	; 0x2270 <vfprintf+0x108>
    226c:	88 36       	cpi	r24, 0x68	; 104
    226e:	41 f4       	brne	.+16     	; 0x2280 <vfprintf+0x118>
    2270:	f7 01       	movw	r30, r14
    2272:	93 fd       	sbrc	r25, 3
    2274:	85 91       	lpm	r24, Z+
    2276:	93 ff       	sbrs	r25, 3
    2278:	81 91       	ld	r24, Z+
    227a:	7f 01       	movw	r14, r30
    227c:	81 11       	cpse	r24, r1
    227e:	b3 cf       	rjmp	.-154    	; 0x21e6 <vfprintf+0x7e>
    2280:	98 2f       	mov	r25, r24
    2282:	9f 7d       	andi	r25, 0xDF	; 223
    2284:	95 54       	subi	r25, 0x45	; 69
    2286:	93 30       	cpi	r25, 0x03	; 3
    2288:	28 f4       	brcc	.+10     	; 0x2294 <vfprintf+0x12c>
    228a:	0c 5f       	subi	r16, 0xFC	; 252
    228c:	1f 4f       	sbci	r17, 0xFF	; 255
    228e:	9f e3       	ldi	r25, 0x3F	; 63
    2290:	99 83       	std	Y+1, r25	; 0x01
    2292:	0d c0       	rjmp	.+26     	; 0x22ae <vfprintf+0x146>
    2294:	83 36       	cpi	r24, 0x63	; 99
    2296:	31 f0       	breq	.+12     	; 0x22a4 <vfprintf+0x13c>
    2298:	83 37       	cpi	r24, 0x73	; 115
    229a:	71 f0       	breq	.+28     	; 0x22b8 <vfprintf+0x150>
    229c:	83 35       	cpi	r24, 0x53	; 83
    229e:	09 f0       	breq	.+2      	; 0x22a2 <vfprintf+0x13a>
    22a0:	59 c0       	rjmp	.+178    	; 0x2354 <vfprintf+0x1ec>
    22a2:	21 c0       	rjmp	.+66     	; 0x22e6 <vfprintf+0x17e>
    22a4:	f8 01       	movw	r30, r16
    22a6:	80 81       	ld	r24, Z
    22a8:	89 83       	std	Y+1, r24	; 0x01
    22aa:	0e 5f       	subi	r16, 0xFE	; 254
    22ac:	1f 4f       	sbci	r17, 0xFF	; 255
    22ae:	88 24       	eor	r8, r8
    22b0:	83 94       	inc	r8
    22b2:	91 2c       	mov	r9, r1
    22b4:	53 01       	movw	r10, r6
    22b6:	13 c0       	rjmp	.+38     	; 0x22de <vfprintf+0x176>
    22b8:	28 01       	movw	r4, r16
    22ba:	f2 e0       	ldi	r31, 0x02	; 2
    22bc:	4f 0e       	add	r4, r31
    22be:	51 1c       	adc	r5, r1
    22c0:	f8 01       	movw	r30, r16
    22c2:	a0 80       	ld	r10, Z
    22c4:	b1 80       	ldd	r11, Z+1	; 0x01
    22c6:	36 fe       	sbrs	r3, 6
    22c8:	03 c0       	rjmp	.+6      	; 0x22d0 <vfprintf+0x168>
    22ca:	69 2d       	mov	r22, r9
    22cc:	70 e0       	ldi	r23, 0x00	; 0
    22ce:	02 c0       	rjmp	.+4      	; 0x22d4 <vfprintf+0x16c>
    22d0:	6f ef       	ldi	r22, 0xFF	; 255
    22d2:	7f ef       	ldi	r23, 0xFF	; 255
    22d4:	c5 01       	movw	r24, r10
    22d6:	0e 94 c3 12 	call	0x2586	; 0x2586 <strnlen>
    22da:	4c 01       	movw	r8, r24
    22dc:	82 01       	movw	r16, r4
    22de:	f3 2d       	mov	r31, r3
    22e0:	ff 77       	andi	r31, 0x7F	; 127
    22e2:	3f 2e       	mov	r3, r31
    22e4:	16 c0       	rjmp	.+44     	; 0x2312 <vfprintf+0x1aa>
    22e6:	28 01       	movw	r4, r16
    22e8:	22 e0       	ldi	r18, 0x02	; 2
    22ea:	42 0e       	add	r4, r18
    22ec:	51 1c       	adc	r5, r1
    22ee:	f8 01       	movw	r30, r16
    22f0:	a0 80       	ld	r10, Z
    22f2:	b1 80       	ldd	r11, Z+1	; 0x01
    22f4:	36 fe       	sbrs	r3, 6
    22f6:	03 c0       	rjmp	.+6      	; 0x22fe <vfprintf+0x196>
    22f8:	69 2d       	mov	r22, r9
    22fa:	70 e0       	ldi	r23, 0x00	; 0
    22fc:	02 c0       	rjmp	.+4      	; 0x2302 <vfprintf+0x19a>
    22fe:	6f ef       	ldi	r22, 0xFF	; 255
    2300:	7f ef       	ldi	r23, 0xFF	; 255
    2302:	c5 01       	movw	r24, r10
    2304:	0e 94 b8 12 	call	0x2570	; 0x2570 <strnlen_P>
    2308:	4c 01       	movw	r8, r24
    230a:	f3 2d       	mov	r31, r3
    230c:	f0 68       	ori	r31, 0x80	; 128
    230e:	3f 2e       	mov	r3, r31
    2310:	82 01       	movw	r16, r4
    2312:	33 fc       	sbrc	r3, 3
    2314:	1b c0       	rjmp	.+54     	; 0x234c <vfprintf+0x1e4>
    2316:	82 2d       	mov	r24, r2
    2318:	90 e0       	ldi	r25, 0x00	; 0
    231a:	88 16       	cp	r8, r24
    231c:	99 06       	cpc	r9, r25
    231e:	b0 f4       	brcc	.+44     	; 0x234c <vfprintf+0x1e4>
    2320:	b6 01       	movw	r22, r12
    2322:	80 e2       	ldi	r24, 0x20	; 32
    2324:	90 e0       	ldi	r25, 0x00	; 0
    2326:	0e 94 ce 12 	call	0x259c	; 0x259c <fputc>
    232a:	2a 94       	dec	r2
    232c:	f4 cf       	rjmp	.-24     	; 0x2316 <vfprintf+0x1ae>
    232e:	f5 01       	movw	r30, r10
    2330:	37 fc       	sbrc	r3, 7
    2332:	85 91       	lpm	r24, Z+
    2334:	37 fe       	sbrs	r3, 7
    2336:	81 91       	ld	r24, Z+
    2338:	5f 01       	movw	r10, r30
    233a:	b6 01       	movw	r22, r12
    233c:	90 e0       	ldi	r25, 0x00	; 0
    233e:	0e 94 ce 12 	call	0x259c	; 0x259c <fputc>
    2342:	21 10       	cpse	r2, r1
    2344:	2a 94       	dec	r2
    2346:	21 e0       	ldi	r18, 0x01	; 1
    2348:	82 1a       	sub	r8, r18
    234a:	91 08       	sbc	r9, r1
    234c:	81 14       	cp	r8, r1
    234e:	91 04       	cpc	r9, r1
    2350:	71 f7       	brne	.-36     	; 0x232e <vfprintf+0x1c6>
    2352:	e8 c0       	rjmp	.+464    	; 0x2524 <vfprintf+0x3bc>
    2354:	84 36       	cpi	r24, 0x64	; 100
    2356:	11 f0       	breq	.+4      	; 0x235c <vfprintf+0x1f4>
    2358:	89 36       	cpi	r24, 0x69	; 105
    235a:	41 f5       	brne	.+80     	; 0x23ac <vfprintf+0x244>
    235c:	f8 01       	movw	r30, r16
    235e:	37 fe       	sbrs	r3, 7
    2360:	07 c0       	rjmp	.+14     	; 0x2370 <vfprintf+0x208>
    2362:	60 81       	ld	r22, Z
    2364:	71 81       	ldd	r23, Z+1	; 0x01
    2366:	82 81       	ldd	r24, Z+2	; 0x02
    2368:	93 81       	ldd	r25, Z+3	; 0x03
    236a:	0c 5f       	subi	r16, 0xFC	; 252
    236c:	1f 4f       	sbci	r17, 0xFF	; 255
    236e:	08 c0       	rjmp	.+16     	; 0x2380 <vfprintf+0x218>
    2370:	60 81       	ld	r22, Z
    2372:	71 81       	ldd	r23, Z+1	; 0x01
    2374:	07 2e       	mov	r0, r23
    2376:	00 0c       	add	r0, r0
    2378:	88 0b       	sbc	r24, r24
    237a:	99 0b       	sbc	r25, r25
    237c:	0e 5f       	subi	r16, 0xFE	; 254
    237e:	1f 4f       	sbci	r17, 0xFF	; 255
    2380:	f3 2d       	mov	r31, r3
    2382:	ff 76       	andi	r31, 0x6F	; 111
    2384:	3f 2e       	mov	r3, r31
    2386:	97 ff       	sbrs	r25, 7
    2388:	09 c0       	rjmp	.+18     	; 0x239c <vfprintf+0x234>
    238a:	90 95       	com	r25
    238c:	80 95       	com	r24
    238e:	70 95       	com	r23
    2390:	61 95       	neg	r22
    2392:	7f 4f       	sbci	r23, 0xFF	; 255
    2394:	8f 4f       	sbci	r24, 0xFF	; 255
    2396:	9f 4f       	sbci	r25, 0xFF	; 255
    2398:	f0 68       	ori	r31, 0x80	; 128
    239a:	3f 2e       	mov	r3, r31
    239c:	2a e0       	ldi	r18, 0x0A	; 10
    239e:	30 e0       	ldi	r19, 0x00	; 0
    23a0:	a3 01       	movw	r20, r6
    23a2:	0e 94 0a 13 	call	0x2614	; 0x2614 <__ultoa_invert>
    23a6:	88 2e       	mov	r8, r24
    23a8:	86 18       	sub	r8, r6
    23aa:	45 c0       	rjmp	.+138    	; 0x2436 <vfprintf+0x2ce>
    23ac:	85 37       	cpi	r24, 0x75	; 117
    23ae:	31 f4       	brne	.+12     	; 0x23bc <vfprintf+0x254>
    23b0:	23 2d       	mov	r18, r3
    23b2:	2f 7e       	andi	r18, 0xEF	; 239
    23b4:	b2 2e       	mov	r11, r18
    23b6:	2a e0       	ldi	r18, 0x0A	; 10
    23b8:	30 e0       	ldi	r19, 0x00	; 0
    23ba:	25 c0       	rjmp	.+74     	; 0x2406 <vfprintf+0x29e>
    23bc:	93 2d       	mov	r25, r3
    23be:	99 7f       	andi	r25, 0xF9	; 249
    23c0:	b9 2e       	mov	r11, r25
    23c2:	8f 36       	cpi	r24, 0x6F	; 111
    23c4:	c1 f0       	breq	.+48     	; 0x23f6 <vfprintf+0x28e>
    23c6:	18 f4       	brcc	.+6      	; 0x23ce <vfprintf+0x266>
    23c8:	88 35       	cpi	r24, 0x58	; 88
    23ca:	79 f0       	breq	.+30     	; 0x23ea <vfprintf+0x282>
    23cc:	b5 c0       	rjmp	.+362    	; 0x2538 <vfprintf+0x3d0>
    23ce:	80 37       	cpi	r24, 0x70	; 112
    23d0:	19 f0       	breq	.+6      	; 0x23d8 <vfprintf+0x270>
    23d2:	88 37       	cpi	r24, 0x78	; 120
    23d4:	21 f0       	breq	.+8      	; 0x23de <vfprintf+0x276>
    23d6:	b0 c0       	rjmp	.+352    	; 0x2538 <vfprintf+0x3d0>
    23d8:	e9 2f       	mov	r30, r25
    23da:	e0 61       	ori	r30, 0x10	; 16
    23dc:	be 2e       	mov	r11, r30
    23de:	b4 fe       	sbrs	r11, 4
    23e0:	0d c0       	rjmp	.+26     	; 0x23fc <vfprintf+0x294>
    23e2:	fb 2d       	mov	r31, r11
    23e4:	f4 60       	ori	r31, 0x04	; 4
    23e6:	bf 2e       	mov	r11, r31
    23e8:	09 c0       	rjmp	.+18     	; 0x23fc <vfprintf+0x294>
    23ea:	34 fe       	sbrs	r3, 4
    23ec:	0a c0       	rjmp	.+20     	; 0x2402 <vfprintf+0x29a>
    23ee:	29 2f       	mov	r18, r25
    23f0:	26 60       	ori	r18, 0x06	; 6
    23f2:	b2 2e       	mov	r11, r18
    23f4:	06 c0       	rjmp	.+12     	; 0x2402 <vfprintf+0x29a>
    23f6:	28 e0       	ldi	r18, 0x08	; 8
    23f8:	30 e0       	ldi	r19, 0x00	; 0
    23fa:	05 c0       	rjmp	.+10     	; 0x2406 <vfprintf+0x29e>
    23fc:	20 e1       	ldi	r18, 0x10	; 16
    23fe:	30 e0       	ldi	r19, 0x00	; 0
    2400:	02 c0       	rjmp	.+4      	; 0x2406 <vfprintf+0x29e>
    2402:	20 e1       	ldi	r18, 0x10	; 16
    2404:	32 e0       	ldi	r19, 0x02	; 2
    2406:	f8 01       	movw	r30, r16
    2408:	b7 fe       	sbrs	r11, 7
    240a:	07 c0       	rjmp	.+14     	; 0x241a <vfprintf+0x2b2>
    240c:	60 81       	ld	r22, Z
    240e:	71 81       	ldd	r23, Z+1	; 0x01
    2410:	82 81       	ldd	r24, Z+2	; 0x02
    2412:	93 81       	ldd	r25, Z+3	; 0x03
    2414:	0c 5f       	subi	r16, 0xFC	; 252
    2416:	1f 4f       	sbci	r17, 0xFF	; 255
    2418:	06 c0       	rjmp	.+12     	; 0x2426 <vfprintf+0x2be>
    241a:	60 81       	ld	r22, Z
    241c:	71 81       	ldd	r23, Z+1	; 0x01
    241e:	80 e0       	ldi	r24, 0x00	; 0
    2420:	90 e0       	ldi	r25, 0x00	; 0
    2422:	0e 5f       	subi	r16, 0xFE	; 254
    2424:	1f 4f       	sbci	r17, 0xFF	; 255
    2426:	a3 01       	movw	r20, r6
    2428:	0e 94 0a 13 	call	0x2614	; 0x2614 <__ultoa_invert>
    242c:	88 2e       	mov	r8, r24
    242e:	86 18       	sub	r8, r6
    2430:	fb 2d       	mov	r31, r11
    2432:	ff 77       	andi	r31, 0x7F	; 127
    2434:	3f 2e       	mov	r3, r31
    2436:	36 fe       	sbrs	r3, 6
    2438:	0d c0       	rjmp	.+26     	; 0x2454 <vfprintf+0x2ec>
    243a:	23 2d       	mov	r18, r3
    243c:	2e 7f       	andi	r18, 0xFE	; 254
    243e:	a2 2e       	mov	r10, r18
    2440:	89 14       	cp	r8, r9
    2442:	58 f4       	brcc	.+22     	; 0x245a <vfprintf+0x2f2>
    2444:	34 fe       	sbrs	r3, 4
    2446:	0b c0       	rjmp	.+22     	; 0x245e <vfprintf+0x2f6>
    2448:	32 fc       	sbrc	r3, 2
    244a:	09 c0       	rjmp	.+18     	; 0x245e <vfprintf+0x2f6>
    244c:	83 2d       	mov	r24, r3
    244e:	8e 7e       	andi	r24, 0xEE	; 238
    2450:	a8 2e       	mov	r10, r24
    2452:	05 c0       	rjmp	.+10     	; 0x245e <vfprintf+0x2f6>
    2454:	b8 2c       	mov	r11, r8
    2456:	a3 2c       	mov	r10, r3
    2458:	03 c0       	rjmp	.+6      	; 0x2460 <vfprintf+0x2f8>
    245a:	b8 2c       	mov	r11, r8
    245c:	01 c0       	rjmp	.+2      	; 0x2460 <vfprintf+0x2f8>
    245e:	b9 2c       	mov	r11, r9
    2460:	a4 fe       	sbrs	r10, 4
    2462:	0f c0       	rjmp	.+30     	; 0x2482 <vfprintf+0x31a>
    2464:	fe 01       	movw	r30, r28
    2466:	e8 0d       	add	r30, r8
    2468:	f1 1d       	adc	r31, r1
    246a:	80 81       	ld	r24, Z
    246c:	80 33       	cpi	r24, 0x30	; 48
    246e:	21 f4       	brne	.+8      	; 0x2478 <vfprintf+0x310>
    2470:	9a 2d       	mov	r25, r10
    2472:	99 7e       	andi	r25, 0xE9	; 233
    2474:	a9 2e       	mov	r10, r25
    2476:	09 c0       	rjmp	.+18     	; 0x248a <vfprintf+0x322>
    2478:	a2 fe       	sbrs	r10, 2
    247a:	06 c0       	rjmp	.+12     	; 0x2488 <vfprintf+0x320>
    247c:	b3 94       	inc	r11
    247e:	b3 94       	inc	r11
    2480:	04 c0       	rjmp	.+8      	; 0x248a <vfprintf+0x322>
    2482:	8a 2d       	mov	r24, r10
    2484:	86 78       	andi	r24, 0x86	; 134
    2486:	09 f0       	breq	.+2      	; 0x248a <vfprintf+0x322>
    2488:	b3 94       	inc	r11
    248a:	a3 fc       	sbrc	r10, 3
    248c:	11 c0       	rjmp	.+34     	; 0x24b0 <vfprintf+0x348>
    248e:	a0 fe       	sbrs	r10, 0
    2490:	06 c0       	rjmp	.+12     	; 0x249e <vfprintf+0x336>
    2492:	b2 14       	cp	r11, r2
    2494:	88 f4       	brcc	.+34     	; 0x24b8 <vfprintf+0x350>
    2496:	28 0c       	add	r2, r8
    2498:	92 2c       	mov	r9, r2
    249a:	9b 18       	sub	r9, r11
    249c:	0e c0       	rjmp	.+28     	; 0x24ba <vfprintf+0x352>
    249e:	b2 14       	cp	r11, r2
    24a0:	60 f4       	brcc	.+24     	; 0x24ba <vfprintf+0x352>
    24a2:	b6 01       	movw	r22, r12
    24a4:	80 e2       	ldi	r24, 0x20	; 32
    24a6:	90 e0       	ldi	r25, 0x00	; 0
    24a8:	0e 94 ce 12 	call	0x259c	; 0x259c <fputc>
    24ac:	b3 94       	inc	r11
    24ae:	f7 cf       	rjmp	.-18     	; 0x249e <vfprintf+0x336>
    24b0:	b2 14       	cp	r11, r2
    24b2:	18 f4       	brcc	.+6      	; 0x24ba <vfprintf+0x352>
    24b4:	2b 18       	sub	r2, r11
    24b6:	02 c0       	rjmp	.+4      	; 0x24bc <vfprintf+0x354>
    24b8:	98 2c       	mov	r9, r8
    24ba:	21 2c       	mov	r2, r1
    24bc:	a4 fe       	sbrs	r10, 4
    24be:	10 c0       	rjmp	.+32     	; 0x24e0 <vfprintf+0x378>
    24c0:	b6 01       	movw	r22, r12
    24c2:	80 e3       	ldi	r24, 0x30	; 48
    24c4:	90 e0       	ldi	r25, 0x00	; 0
    24c6:	0e 94 ce 12 	call	0x259c	; 0x259c <fputc>
    24ca:	a2 fe       	sbrs	r10, 2
    24cc:	17 c0       	rjmp	.+46     	; 0x24fc <vfprintf+0x394>
    24ce:	a1 fc       	sbrc	r10, 1
    24d0:	03 c0       	rjmp	.+6      	; 0x24d8 <vfprintf+0x370>
    24d2:	88 e7       	ldi	r24, 0x78	; 120
    24d4:	90 e0       	ldi	r25, 0x00	; 0
    24d6:	02 c0       	rjmp	.+4      	; 0x24dc <vfprintf+0x374>
    24d8:	88 e5       	ldi	r24, 0x58	; 88
    24da:	90 e0       	ldi	r25, 0x00	; 0
    24dc:	b6 01       	movw	r22, r12
    24de:	0c c0       	rjmp	.+24     	; 0x24f8 <vfprintf+0x390>
    24e0:	8a 2d       	mov	r24, r10
    24e2:	86 78       	andi	r24, 0x86	; 134
    24e4:	59 f0       	breq	.+22     	; 0x24fc <vfprintf+0x394>
    24e6:	a1 fe       	sbrs	r10, 1
    24e8:	02 c0       	rjmp	.+4      	; 0x24ee <vfprintf+0x386>
    24ea:	8b e2       	ldi	r24, 0x2B	; 43
    24ec:	01 c0       	rjmp	.+2      	; 0x24f0 <vfprintf+0x388>
    24ee:	80 e2       	ldi	r24, 0x20	; 32
    24f0:	a7 fc       	sbrc	r10, 7
    24f2:	8d e2       	ldi	r24, 0x2D	; 45
    24f4:	b6 01       	movw	r22, r12
    24f6:	90 e0       	ldi	r25, 0x00	; 0
    24f8:	0e 94 ce 12 	call	0x259c	; 0x259c <fputc>
    24fc:	89 14       	cp	r8, r9
    24fe:	38 f4       	brcc	.+14     	; 0x250e <vfprintf+0x3a6>
    2500:	b6 01       	movw	r22, r12
    2502:	80 e3       	ldi	r24, 0x30	; 48
    2504:	90 e0       	ldi	r25, 0x00	; 0
    2506:	0e 94 ce 12 	call	0x259c	; 0x259c <fputc>
    250a:	9a 94       	dec	r9
    250c:	f7 cf       	rjmp	.-18     	; 0x24fc <vfprintf+0x394>
    250e:	8a 94       	dec	r8
    2510:	f3 01       	movw	r30, r6
    2512:	e8 0d       	add	r30, r8
    2514:	f1 1d       	adc	r31, r1
    2516:	80 81       	ld	r24, Z
    2518:	b6 01       	movw	r22, r12
    251a:	90 e0       	ldi	r25, 0x00	; 0
    251c:	0e 94 ce 12 	call	0x259c	; 0x259c <fputc>
    2520:	81 10       	cpse	r8, r1
    2522:	f5 cf       	rjmp	.-22     	; 0x250e <vfprintf+0x3a6>
    2524:	22 20       	and	r2, r2
    2526:	09 f4       	brne	.+2      	; 0x252a <vfprintf+0x3c2>
    2528:	42 ce       	rjmp	.-892    	; 0x21ae <vfprintf+0x46>
    252a:	b6 01       	movw	r22, r12
    252c:	80 e2       	ldi	r24, 0x20	; 32
    252e:	90 e0       	ldi	r25, 0x00	; 0
    2530:	0e 94 ce 12 	call	0x259c	; 0x259c <fputc>
    2534:	2a 94       	dec	r2
    2536:	f6 cf       	rjmp	.-20     	; 0x2524 <vfprintf+0x3bc>
    2538:	f6 01       	movw	r30, r12
    253a:	86 81       	ldd	r24, Z+6	; 0x06
    253c:	97 81       	ldd	r25, Z+7	; 0x07
    253e:	02 c0       	rjmp	.+4      	; 0x2544 <vfprintf+0x3dc>
    2540:	8f ef       	ldi	r24, 0xFF	; 255
    2542:	9f ef       	ldi	r25, 0xFF	; 255
    2544:	2b 96       	adiw	r28, 0x0b	; 11
    2546:	cd bf       	out	0x3d, r28	; 61
    2548:	de bf       	out	0x3e, r29	; 62
    254a:	df 91       	pop	r29
    254c:	cf 91       	pop	r28
    254e:	1f 91       	pop	r17
    2550:	0f 91       	pop	r16
    2552:	ff 90       	pop	r15
    2554:	ef 90       	pop	r14
    2556:	df 90       	pop	r13
    2558:	cf 90       	pop	r12
    255a:	bf 90       	pop	r11
    255c:	af 90       	pop	r10
    255e:	9f 90       	pop	r9
    2560:	8f 90       	pop	r8
    2562:	7f 90       	pop	r7
    2564:	6f 90       	pop	r6
    2566:	5f 90       	pop	r5
    2568:	4f 90       	pop	r4
    256a:	3f 90       	pop	r3
    256c:	2f 90       	pop	r2
    256e:	08 95       	ret

00002570 <strnlen_P>:
    2570:	fc 01       	movw	r30, r24
    2572:	05 90       	lpm	r0, Z+
    2574:	61 50       	subi	r22, 0x01	; 1
    2576:	70 40       	sbci	r23, 0x00	; 0
    2578:	01 10       	cpse	r0, r1
    257a:	d8 f7       	brcc	.-10     	; 0x2572 <strnlen_P+0x2>
    257c:	80 95       	com	r24
    257e:	90 95       	com	r25
    2580:	8e 0f       	add	r24, r30
    2582:	9f 1f       	adc	r25, r31
    2584:	08 95       	ret

00002586 <strnlen>:
    2586:	fc 01       	movw	r30, r24
    2588:	61 50       	subi	r22, 0x01	; 1
    258a:	70 40       	sbci	r23, 0x00	; 0
    258c:	01 90       	ld	r0, Z+
    258e:	01 10       	cpse	r0, r1
    2590:	d8 f7       	brcc	.-10     	; 0x2588 <strnlen+0x2>
    2592:	80 95       	com	r24
    2594:	90 95       	com	r25
    2596:	8e 0f       	add	r24, r30
    2598:	9f 1f       	adc	r25, r31
    259a:	08 95       	ret

0000259c <fputc>:
    259c:	0f 93       	push	r16
    259e:	1f 93       	push	r17
    25a0:	cf 93       	push	r28
    25a2:	df 93       	push	r29
    25a4:	fb 01       	movw	r30, r22
    25a6:	23 81       	ldd	r18, Z+3	; 0x03
    25a8:	21 fd       	sbrc	r18, 1
    25aa:	03 c0       	rjmp	.+6      	; 0x25b2 <fputc+0x16>
    25ac:	8f ef       	ldi	r24, 0xFF	; 255
    25ae:	9f ef       	ldi	r25, 0xFF	; 255
    25b0:	2c c0       	rjmp	.+88     	; 0x260a <fputc+0x6e>
    25b2:	22 ff       	sbrs	r18, 2
    25b4:	16 c0       	rjmp	.+44     	; 0x25e2 <fputc+0x46>
    25b6:	46 81       	ldd	r20, Z+6	; 0x06
    25b8:	57 81       	ldd	r21, Z+7	; 0x07
    25ba:	24 81       	ldd	r18, Z+4	; 0x04
    25bc:	35 81       	ldd	r19, Z+5	; 0x05
    25be:	42 17       	cp	r20, r18
    25c0:	53 07       	cpc	r21, r19
    25c2:	44 f4       	brge	.+16     	; 0x25d4 <fputc+0x38>
    25c4:	a0 81       	ld	r26, Z
    25c6:	b1 81       	ldd	r27, Z+1	; 0x01
    25c8:	9d 01       	movw	r18, r26
    25ca:	2f 5f       	subi	r18, 0xFF	; 255
    25cc:	3f 4f       	sbci	r19, 0xFF	; 255
    25ce:	20 83       	st	Z, r18
    25d0:	31 83       	std	Z+1, r19	; 0x01
    25d2:	8c 93       	st	X, r24
    25d4:	26 81       	ldd	r18, Z+6	; 0x06
    25d6:	37 81       	ldd	r19, Z+7	; 0x07
    25d8:	2f 5f       	subi	r18, 0xFF	; 255
    25da:	3f 4f       	sbci	r19, 0xFF	; 255
    25dc:	26 83       	std	Z+6, r18	; 0x06
    25de:	37 83       	std	Z+7, r19	; 0x07
    25e0:	14 c0       	rjmp	.+40     	; 0x260a <fputc+0x6e>
    25e2:	8b 01       	movw	r16, r22
    25e4:	ec 01       	movw	r28, r24
    25e6:	fb 01       	movw	r30, r22
    25e8:	00 84       	ldd	r0, Z+8	; 0x08
    25ea:	f1 85       	ldd	r31, Z+9	; 0x09
    25ec:	e0 2d       	mov	r30, r0
    25ee:	19 95       	eicall
    25f0:	89 2b       	or	r24, r25
    25f2:	e1 f6       	brne	.-72     	; 0x25ac <fputc+0x10>
    25f4:	d8 01       	movw	r26, r16
    25f6:	16 96       	adiw	r26, 0x06	; 6
    25f8:	8d 91       	ld	r24, X+
    25fa:	9c 91       	ld	r25, X
    25fc:	17 97       	sbiw	r26, 0x07	; 7
    25fe:	01 96       	adiw	r24, 0x01	; 1
    2600:	16 96       	adiw	r26, 0x06	; 6
    2602:	8d 93       	st	X+, r24
    2604:	9c 93       	st	X, r25
    2606:	17 97       	sbiw	r26, 0x07	; 7
    2608:	ce 01       	movw	r24, r28
    260a:	df 91       	pop	r29
    260c:	cf 91       	pop	r28
    260e:	1f 91       	pop	r17
    2610:	0f 91       	pop	r16
    2612:	08 95       	ret

00002614 <__ultoa_invert>:
    2614:	fa 01       	movw	r30, r20
    2616:	aa 27       	eor	r26, r26
    2618:	28 30       	cpi	r18, 0x08	; 8
    261a:	51 f1       	breq	.+84     	; 0x2670 <__ultoa_invert+0x5c>
    261c:	20 31       	cpi	r18, 0x10	; 16
    261e:	81 f1       	breq	.+96     	; 0x2680 <__ultoa_invert+0x6c>
    2620:	e8 94       	clt
    2622:	6f 93       	push	r22
    2624:	6e 7f       	andi	r22, 0xFE	; 254
    2626:	6e 5f       	subi	r22, 0xFE	; 254
    2628:	7f 4f       	sbci	r23, 0xFF	; 255
    262a:	8f 4f       	sbci	r24, 0xFF	; 255
    262c:	9f 4f       	sbci	r25, 0xFF	; 255
    262e:	af 4f       	sbci	r26, 0xFF	; 255
    2630:	b1 e0       	ldi	r27, 0x01	; 1
    2632:	3e d0       	rcall	.+124    	; 0x26b0 <__ultoa_invert+0x9c>
    2634:	b4 e0       	ldi	r27, 0x04	; 4
    2636:	3c d0       	rcall	.+120    	; 0x26b0 <__ultoa_invert+0x9c>
    2638:	67 0f       	add	r22, r23
    263a:	78 1f       	adc	r23, r24
    263c:	89 1f       	adc	r24, r25
    263e:	9a 1f       	adc	r25, r26
    2640:	a1 1d       	adc	r26, r1
    2642:	68 0f       	add	r22, r24
    2644:	79 1f       	adc	r23, r25
    2646:	8a 1f       	adc	r24, r26
    2648:	91 1d       	adc	r25, r1
    264a:	a1 1d       	adc	r26, r1
    264c:	6a 0f       	add	r22, r26
    264e:	71 1d       	adc	r23, r1
    2650:	81 1d       	adc	r24, r1
    2652:	91 1d       	adc	r25, r1
    2654:	a1 1d       	adc	r26, r1
    2656:	20 d0       	rcall	.+64     	; 0x2698 <__ultoa_invert+0x84>
    2658:	09 f4       	brne	.+2      	; 0x265c <__ultoa_invert+0x48>
    265a:	68 94       	set
    265c:	3f 91       	pop	r19
    265e:	2a e0       	ldi	r18, 0x0A	; 10
    2660:	26 9f       	mul	r18, r22
    2662:	11 24       	eor	r1, r1
    2664:	30 19       	sub	r19, r0
    2666:	30 5d       	subi	r19, 0xD0	; 208
    2668:	31 93       	st	Z+, r19
    266a:	de f6       	brtc	.-74     	; 0x2622 <__ultoa_invert+0xe>
    266c:	cf 01       	movw	r24, r30
    266e:	08 95       	ret
    2670:	46 2f       	mov	r20, r22
    2672:	47 70       	andi	r20, 0x07	; 7
    2674:	40 5d       	subi	r20, 0xD0	; 208
    2676:	41 93       	st	Z+, r20
    2678:	b3 e0       	ldi	r27, 0x03	; 3
    267a:	0f d0       	rcall	.+30     	; 0x269a <__ultoa_invert+0x86>
    267c:	c9 f7       	brne	.-14     	; 0x2670 <__ultoa_invert+0x5c>
    267e:	f6 cf       	rjmp	.-20     	; 0x266c <__ultoa_invert+0x58>
    2680:	46 2f       	mov	r20, r22
    2682:	4f 70       	andi	r20, 0x0F	; 15
    2684:	40 5d       	subi	r20, 0xD0	; 208
    2686:	4a 33       	cpi	r20, 0x3A	; 58
    2688:	18 f0       	brcs	.+6      	; 0x2690 <__ultoa_invert+0x7c>
    268a:	49 5d       	subi	r20, 0xD9	; 217
    268c:	31 fd       	sbrc	r19, 1
    268e:	40 52       	subi	r20, 0x20	; 32
    2690:	41 93       	st	Z+, r20
    2692:	02 d0       	rcall	.+4      	; 0x2698 <__ultoa_invert+0x84>
    2694:	a9 f7       	brne	.-22     	; 0x2680 <__ultoa_invert+0x6c>
    2696:	ea cf       	rjmp	.-44     	; 0x266c <__ultoa_invert+0x58>
    2698:	b4 e0       	ldi	r27, 0x04	; 4
    269a:	a6 95       	lsr	r26
    269c:	97 95       	ror	r25
    269e:	87 95       	ror	r24
    26a0:	77 95       	ror	r23
    26a2:	67 95       	ror	r22
    26a4:	ba 95       	dec	r27
    26a6:	c9 f7       	brne	.-14     	; 0x269a <__ultoa_invert+0x86>
    26a8:	00 97       	sbiw	r24, 0x00	; 0
    26aa:	61 05       	cpc	r22, r1
    26ac:	71 05       	cpc	r23, r1
    26ae:	08 95       	ret
    26b0:	9b 01       	movw	r18, r22
    26b2:	ac 01       	movw	r20, r24
    26b4:	0a 2e       	mov	r0, r26
    26b6:	06 94       	lsr	r0
    26b8:	57 95       	ror	r21
    26ba:	47 95       	ror	r20
    26bc:	37 95       	ror	r19
    26be:	27 95       	ror	r18
    26c0:	ba 95       	dec	r27
    26c2:	c9 f7       	brne	.-14     	; 0x26b6 <__ultoa_invert+0xa2>
    26c4:	62 0f       	add	r22, r18
    26c6:	73 1f       	adc	r23, r19
    26c8:	84 1f       	adc	r24, r20
    26ca:	95 1f       	adc	r25, r21
    26cc:	a0 1d       	adc	r26, r0
    26ce:	08 95       	ret

000026d0 <_exit>:
    26d0:	f8 94       	cli

000026d2 <__stop_program>:
    26d2:	ff cf       	rjmp	.-2      	; 0x26d2 <__stop_program>
